

Microchip Technology PIC18 LITE Macro Assembler V1.32 build 58300 
                                                                                               Sat Jul 05 05:39:22 2014

Microchip Technology Omniscient Code Generator (Lite mode) build 58300
     1                           	processor	18F4520
     2                           	fnconf	rparam,??,?,0
     3                           	opt	pw 120
     4                           	opt	lm
     5                           	psect	intcode_body,global,reloc=2,class=CODE,delta=1
     6                           	psect	cinit,global,reloc=2,class=CODE,delta=1
     7                           	psect	bssCOMRAM,global,class=COMRAM,space=1,delta=1
     8                           	psect	cstackCOMRAM,global,class=COMRAM,space=1,delta=1
     9                           	psect	text0,global,reloc=2,class=CODE,delta=1
    10                           	psect	text1,global,reloc=2,class=CODE,delta=1
    11                           	psect	text2,global,reloc=2,class=CODE,delta=1
    12                           	psect	text3,global,reloc=2,class=CODE,delta=1
    13                           	psect	text4,global,reloc=2,class=CODE,delta=1
    14                           	psect	text5,global,reloc=2,class=CODE,delta=1
    15                           	psect	text6,global,reloc=2,class=CODE,delta=1
    16                           	psect	text7,global,reloc=2,class=CODE,delta=1
    17                           	psect	text8,global,reloc=2,class=CODE,delta=1
    18                           	psect	text9,global,reloc=2,class=CODE,delta=1
    19                           	psect	text10,global,reloc=2,class=CODE,delta=1
    20                           	psect	text11,global,reloc=2,class=CODE,delta=1
    21                           	psect	intcode,global,reloc=2,class=CODE,delta=1
    22                           	psect	intsave_regs,global,class=BIGRAM,space=1,delta=1
    23                           	psect	rparam,global,class=COMRAM,space=1,delta=1
    24  0000                     _CCP1CON	set	4029
    25  0000                     _CCPR1L	set	4030
    26  0000                     _INTCONbits	set	4082
    27  0000                     _LATDbits	set	3980
    28  0000                     _PIE1bits	set	3997
    29  0000                     _PIR1bits	set	3998
    30  0000                     _PR2	set	4043
    31  0000                     _SSPBUF	set	4041
    32  0000                     _SSPCON1bits	set	4038
    33  0000                     _SSPSTATbits	set	4039
    34  0000                     _T2CON	set	4042
    35  0000                     _T2CONbits	set	4042
    36  0000                     _TRISCbits	set	3988
    37  0000                     _TRISDbits	set	3989
    38                           
    39                           	psect	intcode_body
    40  0006B4                     __pintcode_body:
    41                           	opt stack 0
    42                           
    43                           ; #config settings
    44  0006B4                     int_func:
    45                           	opt stack 28
    46  0006B4  0006               	pop		; remove dummy address from shadow register refresh
    47  0006B6  CFEA F026          	movff	fsr0h,??_tlc_interrupt_blank+3
    48  0006BA  CFE1 F027          	movff	fsr1l,??_tlc_interrupt_blank+4
    49  0006BE  CFE2 F028          	movff	fsr1h,??_tlc_interrupt_blank+5
    50  0006C2  CFD9 F029          	movff	fsr2l,??_tlc_interrupt_blank+6
    51  0006C6  CFDA F02A          	movff	fsr2h,??_tlc_interrupt_blank+7
    52  0006CA  CFF3 F02B          	movff	prodl,??_tlc_interrupt_blank+8
    53  0006CE  CFF4 F02C          	movff	prodh,??_tlc_interrupt_blank+9
    54  0006D2  CFF6 F02D          	movff	tblptrl,??_tlc_interrupt_blank+10
    55  0006D6  CFF7 F02E          	movff	tblptrh,??_tlc_interrupt_blank+11
    56  0006DA  CFF8 F02F          	movff	tblptru,??_tlc_interrupt_blank+12
    57  0006DE  CFF5 F030          	movff	tablat,??_tlc_interrupt_blank+13
    58                           
    59                           ;main.c: 34: if(PIE1bits.TMR2IE && PIR1bits.TMR2IF)
    60  0006E2  B29D               	btfsc	3997,1,c	;volatile
    61  0006E4  A29E               	btfss	3998,1,c	;volatile
    62  0006E6  D012               	goto	i2l146
    63                           
    64                           ;main.c: 35: {
    65                           ;main.c: 36: if(tlc_interrupt_counter >= 125)
    66  0006E8  5022               	movf	_tlc_interrupt_counter+1,w,c
    67  0006EA  0A80               	xorlw	128
    68  0006EC  0F80               	addlw	-128
    69  0006EE  0E7D               	movlw	125
    70  0006F0  B4D8               	btfsc	status,2,c
    71  0006F2  5C21               	subwf	_tlc_interrupt_counter,w,c
    72  0006F4  A0D8               	btfss	status,0,c
    73  0006F6  D007               	goto	i2l958
    74                           
    75                           ;main.c: 37: {
    76                           ;main.c: 38: LATDbits.LD2 = 1;
    77  0006F8  848C               	bsf	3980,2,c	;volatile
    78                           
    79                           ;main.c: 39: _delay((unsigned long)((1)*(8000000/4000000.0)));
    80  0006FA  D000               	nop2		;2 cycle nop
    81                           
    82                           ;main.c: 40: LATDbits.LD2 = 0;
    83  0006FC  948C               	bcf	3980,2,c	;volatile
    84                           
    85                           ;main.c: 41: tlc_interrupt_counter = 0;
    86  0006FE  0E00               	movlw	0
    87  000700  6E22               	movwf	_tlc_interrupt_counter+1,c
    88  000702  0E00               	movlw	0
    89  000704  6E21               	movwf	_tlc_interrupt_counter,c
    90  000706                     i2l958:
    91                           
    92                           ;main.c: 42: }
    93                           ;main.c: 43: tlc_interrupt_counter++;
    94  000706  4A21               	infsnz	_tlc_interrupt_counter,f,c
    95  000708  2A22               	incf	_tlc_interrupt_counter+1,f,c
    96                           
    97                           ;main.c: 44: PIR1bits.TMR2IF = 0;
    98  00070A  929E               	bcf	3998,1,c	;volatile
    99  00070C                     i2l146:
   100  00070C  C030  FFF5         	movff	??_tlc_interrupt_blank+13,tablat
   101  000710  C02F  FFF8         	movff	??_tlc_interrupt_blank+12,tblptru
   102  000714  C02E  FFF7         	movff	??_tlc_interrupt_blank+11,tblptrh
   103  000718  C02D  FFF6         	movff	??_tlc_interrupt_blank+10,tblptrl
   104  00071C  C02C  FFF4         	movff	??_tlc_interrupt_blank+9,prodh
   105  000720  C02B  FFF3         	movff	??_tlc_interrupt_blank+8,prodl
   106  000724  C02A  FFDA         	movff	??_tlc_interrupt_blank+7,fsr2h
   107  000728  C029  FFD9         	movff	??_tlc_interrupt_blank+6,fsr2l
   108  00072C  C028  FFE2         	movff	??_tlc_interrupt_blank+5,fsr1h
   109  000730  C027  FFE1         	movff	??_tlc_interrupt_blank+4,fsr1l
   110  000734  C026  FFEA         	movff	??_tlc_interrupt_blank+3,fsr0h
   111  000738  C025  FFE9         	movff	??_tlc_interrupt_blank+2,fsr0l
   112  00073C  C024  FFFB         	movff	??_tlc_interrupt_blank+1,pclatu
   113  000740  C023  FFFA         	movff	??_tlc_interrupt_blank,pclath
   114  000744  0011               	retfie		f
   115  000746                     __end_of_tlc_interrupt_blank:
   116                           	opt stack 0
   117  0000                     pclatu	equ	0xFFB
   118                           pclath	equ	0xFFA
   119                           tblptru	equ	0xFF8
   120                           tblptrh	equ	0xFF7
   121                           tblptrl	equ	0xFF6
   122                           tablat	equ	0xFF5
   123                           prodh	equ	0xFF4
   124                           prodl	equ	0xFF3
   125                           fsr0h	equ	0xFEA
   126                           fsr0l	equ	0xFE9
   127                           fsr1h	equ	0xFE2
   128                           fsr1l	equ	0xFE1
   129                           fsr2h	equ	0xFDA
   130                           fsr2l	equ	0xFD9
   131                           status	equ	0xFD8
   132                           
   133                           	psect	cinit
   134  0008A2                     __pcinit:
   135                           	opt stack 0
   136  0008A2                     start_initialization:
   137                           	opt stack 0
   138  0008A2                     __initialization:
   139                           	opt stack 0
   140                           
   141                           ; Clear objects allocated to COMRAM (34 bytes)
   142  0008A2  EE00  F001         	lfsr	0,__pbssCOMRAM
   143  0008A6  0E22               	movlw	34
   144  0008A8                     clear_0:
   145  0008A8  6AEE               	clrf	postinc0,c
   146  0008AA  06E8               	decf	wreg,f,c
   147  0008AC  E1FD               	bnz	clear_0
   148  0008AE                     end_of_initialization:
   149                           	opt stack 0
   150  0008AE                     __end_of__initialization:
   151                           	opt stack 0
   152  0008AE  0100               	movlb	0
   153  0008B0  EF61  F002         	goto	_main	;jump to C main() function
   154                           pclatu	equ	0xFFB
   155                           pclath	equ	0xFFA
   156                           tblptru	equ	0xFF8
   157                           tblptrh	equ	0xFF7
   158                           tblptrl	equ	0xFF6
   159                           tablat	equ	0xFF5
   160                           prodh	equ	0xFF4
   161                           prodl	equ	0xFF3
   162                           postinc0	equ	0xFEE
   163                           fsr0h	equ	0xFEA
   164                           fsr0l	equ	0xFE9
   165                           wreg	equ	0xFE8
   166                           fsr1h	equ	0xFE2
   167                           fsr1l	equ	0xFE1
   168                           fsr2h	equ	0xFDA
   169                           fsr2l	equ	0xFD9
   170                           status	equ	0xFD8
   171                           
   172                           	psect	bssCOMRAM
   173  000001                     __pbssCOMRAM:
   174                           	opt stack 0
   175  000001                     _tlc_servo:
   176                           	opt stack 0
   177  000001                     	ds	16
   178  000011                     _tlc_servo_temp:
   179                           	opt stack 0
   180  000011                     	ds	16
   181  000021                     _tlc_interrupt_counter:
   182                           	opt stack 0
   183  000021                     	ds	2
   184                           pclatu	equ	0xFFB
   185                           pclath	equ	0xFFA
   186                           tblptru	equ	0xFF8
   187                           tblptrh	equ	0xFF7
   188                           tblptrl	equ	0xFF6
   189                           tablat	equ	0xFF5
   190                           prodh	equ	0xFF4
   191                           prodl	equ	0xFF3
   192                           postinc0	equ	0xFEE
   193                           fsr0h	equ	0xFEA
   194                           fsr0l	equ	0xFE9
   195                           wreg	equ	0xFE8
   196                           fsr1h	equ	0xFE2
   197                           fsr1l	equ	0xFE1
   198                           fsr2h	equ	0xFDA
   199                           fsr2l	equ	0xFD9
   200                           status	equ	0xFD8
   201                           
   202                           	psect	cstackCOMRAM
   203  000023                     __pcstackCOMRAM:
   204                           	opt stack 0
   205  000023                     ??_tlc_interrupt_blank:
   206  000023                     
   207                           ; 2 bytes @ 0x0
   208  000023                     	ds	14
   209  000031                     ??_delay_sec:
   210  000031                     tlc_spi_send_data@data:
   211                           	opt stack 0
   212  000031                     tlc_set@value:
   213                           	opt stack 0
   214  000031                     tlc_sweep_delay@count:
   215                           	opt stack 0
   216  000031                     tlc_sweep_set@value:
   217                           	opt stack 0
   218                           
   219                           ; 2 bytes @ 0xE
   220  000031                     	ds	1
   221  000032                     ??_tlc_init:
   222  000032                     ??_tlc_update:
   223  000032                     tlc_write@value:
   224                           	opt stack 0
   225  000032                     delay_sec@i:
   226                           	opt stack 0
   227                           
   228                           ; 2 bytes @ 0xF
   229  000032                     	ds	1
   230  000033                     ??_tlc_sweep_delay:
   231  000033                     tlc_set@tlc_servo_number:
   232                           	opt stack 0
   233  000033                     tlc_sweep_set@tlc_servo_number:
   234                           	opt stack 0
   235                           
   236                           ; 1 bytes @ 0x10
   237  000033                     	ds	1
   238  000034                     ??_tlc_write:
   239  000034                     tlc_sweep_update@speed:
   240                           	opt stack 0
   241                           
   242                           ; 2 bytes @ 0x11
   243  000034                     	ds	2
   244  000036                     ??_tlc_sweep_update:
   245                           
   246                           ; 0 bytes @ 0x13
   247  000036                     	ds	1
   248  000037                     tlc_init@i:
   249                           	opt stack 0
   250  000037                     tlc_update@counter:
   251                           	opt stack 0
   252                           
   253                           ; 1 bytes @ 0x14
   254  000037                     	ds	1
   255  000038                     tlc_init@counter:
   256                           	opt stack 0
   257  000038                     tlc_update@i:
   258                           	opt stack 0
   259                           
   260                           ; 1 bytes @ 0x15
   261  000038                     	ds	1
   262  000039                     tlc_init@i_605:
   263                           	opt stack 0
   264  000039                     tlc_write@counter:
   265                           	opt stack 0
   266                           
   267                           ; 1 bytes @ 0x16
   268  000039                     	ds	1
   269  00003A                     tlc_write@tlc_servo_number:
   270                           	opt stack 0
   271  00003A                     tlc_init@i_603:
   272                           	opt stack 0
   273                           
   274                           ; 2 bytes @ 0x17
   275  00003A                     	ds	1
   276  00003B                     tlc_write@i:
   277                           	opt stack 0
   278  00003B                     tlc_sweep_update@j:
   279                           	opt stack 0
   280                           
   281                           ; 2 bytes @ 0x18
   282  00003B                     	ds	2
   283  00003D                     tlc_sweep_update@counter:
   284                           	opt stack 0
   285                           
   286                           ; 1 bytes @ 0x1A
   287  00003D                     	ds	1
   288  00003E                     tlc_sweep_update@i_627:
   289                           	opt stack 0
   290                           
   291                           ; 1 bytes @ 0x1B
   292  00003E                     	ds	1
   293  00003F                     tlc_sweep_update@i:
   294                           	opt stack 0
   295                           
   296                           ; 2 bytes @ 0x1C
   297  00003F                     	ds	2
   298  000041                     pclatu	equ	0xFFB
   299                           pclath	equ	0xFFA
   300                           tblptru	equ	0xFF8
   301                           tblptrh	equ	0xFF7
   302                           tblptrl	equ	0xFF6
   303                           tablat	equ	0xFF5
   304                           prodh	equ	0xFF4
   305                           prodl	equ	0xFF3
   306                           postinc0	equ	0xFEE
   307                           fsr0h	equ	0xFEA
   308                           fsr0l	equ	0xFE9
   309                           wreg	equ	0xFE8
   310                           fsr1h	equ	0xFE2
   311                           fsr1l	equ	0xFE1
   312                           fsr2h	equ	0xFDA
   313                           fsr2l	equ	0xFD9
   314                           status	equ	0xFD8
   315                           
   316                           ; 0 bytes @ 0x1E
   317 ;;
   318 ;;Main: autosize = 0, tempsize = 0, incstack = 0, save=0
   319 ;;
   320 ;; *************** function _main *****************
   321 ;; Defined at:
   322 ;;		line 48 in file "main.c"
   323 ;; Parameters:    Size  Location     Type
   324 ;;		None
   325 ;; Auto vars:     Size  Location     Type
   326 ;;		None
   327 ;; Return value:  Size  Location     Type
   328 ;;                  2  148[COMRAM] int 
   329 ;; Registers used:
   330 ;;		wreg, fsr1l, fsr1h, fsr2l, fsr2h, status,2, status,0, prodl, prodh, cstack
   331 ;; Tracked objects:
   332 ;;		On entry : 0/0
   333 ;;		On exit  : 0/0
   334 ;;		Unchanged: 0/0
   335 ;; Data sizes:     COMRAM   BANK0   BANK1   BANK2   BANK3   BANK4   BANK5
   336 ;;      Params:         0       0       0       0       0       0       0
   337 ;;      Locals:         0       0       0       0       0       0       0
   338 ;;      Temps:          0       0       0       0       0       0       0
   339 ;;      Totals:         0       0       0       0       0       0       0
   340 ;;Total ram usage:        0 bytes
   341 ;; Hardware stack levels required when called:    3
   342 ;; This function calls:
   343 ;;		_delay_sec
   344 ;;		_tlc_init
   345 ;;		_tlc_pwm_init
   346 ;;		_tlc_set
   347 ;;		_tlc_spi_init
   348 ;;		_tlc_sweep_set
   349 ;;		_tlc_sweep_update
   350 ;;		_tlc_update
   351 ;;		_tlc_write
   352 ;; This function is called by:
   353 ;;		Startup code after reset
   354 ;; This function uses a non-reentrant model
   355 ;;
   356                           
   357                           	psect	text0
   358  0004C2                     __ptext0:
   359                           	opt stack 0
   360  0004C2                     _main:
   361                           	opt stack 28
   362                           
   363                           ;main.c: 50: tlc_pwm_init();
   364                           
   365                           ;incstack = 0
   366  0004C2  EC38  F004         	call	_tlc_pwm_init	;wreg free
   367                           
   368                           ;main.c: 51: tlc_spi_init();
   369  0004C6  EC46  F004         	call	_tlc_spi_init	;wreg free
   370                           
   371                           ;main.c: 52: tlc_init();
   372  0004CA  ECFD  F000         	call	_tlc_init	;wreg free
   373  0004CE                     l968:
   374                           
   375                           ;main.c: 55: {
   376                           ;main.c: 56: LATDbits.LD3 = 1;
   377  0004CE  868C               	bsf	3980,3,c	;volatile
   378                           
   379                           ;main.c: 57: delay_sec();
   380  0004D0  EC10  F004         	call	_delay_sec	;wreg free
   381                           
   382                           ;main.c: 58: LATDbits.LD3 = 0;
   383  0004D4  968C               	bcf	3980,3,c	;volatile
   384                           
   385                           ;main.c: 59: delay_sec();
   386  0004D6  EC10  F004         	call	_delay_sec	;wreg free
   387                           
   388                           ;main.c: 62: tlc_set(15, 175);
   389  0004DA  0E00               	movlw	0
   390  0004DC  6E32               	movwf	tlc_set@value+1,c
   391  0004DE  0EAF               	movlw	175
   392  0004E0  6E31               	movwf	tlc_set@value,c
   393  0004E2  0E0F               	movlw	15
   394  0004E4  ECA3  F003         	call	_tlc_set
   395                           
   396                           ;main.c: 63: tlc_set(14, 130);
   397  0004E8  0E00               	movlw	0
   398  0004EA  6E32               	movwf	tlc_set@value+1,c
   399  0004EC  0E82               	movlw	130
   400  0004EE  6E31               	movwf	tlc_set@value,c
   401  0004F0  0E0E               	movlw	14
   402  0004F2  ECA3  F003         	call	_tlc_set
   403                           
   404                           ;main.c: 64: tlc_set(13, 90);
   405  0004F6  0E00               	movlw	0
   406  0004F8  6E32               	movwf	tlc_set@value+1,c
   407  0004FA  0E5A               	movlw	90
   408  0004FC  6E31               	movwf	tlc_set@value,c
   409  0004FE  0E0D               	movlw	13
   410  000500  ECA3  F003         	call	_tlc_set
   411                           
   412                           ;main.c: 65: tlc_update();
   413  000504  ECF6  F002         	call	_tlc_update	;wreg free
   414                           
   415                           ;main.c: 67: delay_sec();
   416  000508  EC10  F004         	call	_delay_sec	;wreg free
   417                           
   418                           ;main.c: 68: delay_sec();
   419  00050C  EC10  F004         	call	_delay_sec	;wreg free
   420                           
   421                           ;main.c: 69: delay_sec();
   422  000510  EC10  F004         	call	_delay_sec	;wreg free
   423                           
   424                           ;main.c: 70: delay_sec();
   425  000514  EC10  F004         	call	_delay_sec	;wreg free
   426                           
   427                           ;main.c: 73: tlc_set(15, 175);
   428  000518  0E00               	movlw	0
   429  00051A  6E32               	movwf	tlc_set@value+1,c
   430  00051C  0EAF               	movlw	175
   431  00051E  6E31               	movwf	tlc_set@value,c
   432  000520  0E0F               	movlw	15
   433  000522  ECA3  F003         	call	_tlc_set
   434                           
   435                           ;main.c: 74: tlc_set(14, 115);
   436  000526  0E00               	movlw	0
   437  000528  6E32               	movwf	tlc_set@value+1,c
   438  00052A  0E73               	movlw	115
   439  00052C  6E31               	movwf	tlc_set@value,c
   440  00052E  0E0E               	movlw	14
   441  000530  ECA3  F003         	call	_tlc_set
   442                           
   443                           ;main.c: 75: tlc_set(13, 110);
   444  000534  0E00               	movlw	0
   445  000536  6E32               	movwf	tlc_set@value+1,c
   446  000538  0E6E               	movlw	110
   447  00053A  6E31               	movwf	tlc_set@value,c
   448  00053C  0E0D               	movlw	13
   449  00053E  ECA3  F003         	call	_tlc_set
   450                           
   451                           ;main.c: 76: tlc_update();
   452  000542  ECF6  F002         	call	_tlc_update	;wreg free
   453                           
   454                           ;main.c: 78: delay_sec();
   455  000546  EC10  F004         	call	_delay_sec	;wreg free
   456                           
   457                           ;main.c: 79: delay_sec();
   458  00054A  EC10  F004         	call	_delay_sec	;wreg free
   459                           
   460                           ;main.c: 80: delay_sec();
   461  00054E  EC10  F004         	call	_delay_sec	;wreg free
   462                           
   463                           ;main.c: 81: delay_sec();
   464  000552  EC10  F004         	call	_delay_sec	;wreg free
   465                           
   466                           ;main.c: 83: tlc_sweep_set(15,160);
   467  000556  0E00               	movlw	0
   468  000558  6E32               	movwf	tlc_sweep_set@value+1,c
   469  00055A  0EA0               	movlw	160
   470  00055C  6E31               	movwf	tlc_sweep_set@value,c
   471  00055E  0E0F               	movlw	15
   472  000560  ECE4  F003         	call	_tlc_sweep_set
   473                           
   474                           ;main.c: 84: tlc_sweep_set(14,100);
   475  000564  0E00               	movlw	0
   476  000566  6E32               	movwf	tlc_sweep_set@value+1,c
   477  000568  0E64               	movlw	100
   478  00056A  6E31               	movwf	tlc_sweep_set@value,c
   479  00056C  0E0E               	movlw	14
   480  00056E  ECE4  F003         	call	_tlc_sweep_set
   481                           
   482                           ;main.c: 85: tlc_sweep_set(13,30);
   483  000572  0E00               	movlw	0
   484  000574  6E32               	movwf	tlc_sweep_set@value+1,c
   485  000576  0E1E               	movlw	30
   486  000578  6E31               	movwf	tlc_sweep_set@value,c
   487  00057A  0E0D               	movlw	13
   488  00057C  ECE4  F003         	call	_tlc_sweep_set
   489                           
   490                           ;main.c: 86: tlc_sweep_update(2);
   491  000580  0E00               	movlw	0
   492  000582  6E35               	movwf	tlc_sweep_update@speed+1,c
   493  000584  0E02               	movlw	2
   494  000586  6E34               	movwf	tlc_sweep_update@speed,c
   495  000588  EC0E  F000         	call	_tlc_sweep_update	;wreg free
   496                           
   497                           ;main.c: 88: delay_sec();
   498  00058C  EC10  F004         	call	_delay_sec	;wreg free
   499                           
   500                           ;main.c: 89: delay_sec();
   501  000590  EC10  F004         	call	_delay_sec	;wreg free
   502                           
   503                           ;main.c: 90: delay_sec();
   504  000594  EC10  F004         	call	_delay_sec	;wreg free
   505                           
   506                           ;main.c: 91: delay_sec();
   507  000598  EC10  F004         	call	_delay_sec	;wreg free
   508                           
   509                           ;main.c: 93: tlc_write(14, 125);
   510  00059C  0E00               	movlw	0
   511  00059E  6E33               	movwf	tlc_write@value+1,c
   512  0005A0  0E7D               	movlw	125
   513  0005A2  6E32               	movwf	tlc_write@value,c
   514  0005A4  0E0E               	movlw	14
   515  0005A6  ECBD  F001         	call	_tlc_write
   516                           
   517                           ;main.c: 94: delay_sec();
   518  0005AA  EC10  F004         	call	_delay_sec	;wreg free
   519                           
   520                           ;main.c: 95: delay_sec();
   521  0005AE  EC10  F004         	call	_delay_sec	;wreg free
   522                           
   523                           ;main.c: 97: tlc_set(15, -1);
   524  0005B2  0EFF               	movlw	255
   525  0005B4  6E32               	movwf	tlc_set@value+1,c
   526  0005B6  6831               	setf	tlc_set@value,c
   527  0005B8  0E0F               	movlw	15
   528  0005BA  ECA3  F003         	call	_tlc_set
   529                           
   530                           ;main.c: 98: tlc_set(14, -1);
   531  0005BE  0EFF               	movlw	255
   532  0005C0  6E32               	movwf	tlc_set@value+1,c
   533  0005C2  6831               	setf	tlc_set@value,c
   534  0005C4  0E0E               	movlw	14
   535  0005C6  ECA3  F003         	call	_tlc_set
   536                           
   537                           ;main.c: 99: tlc_set(13, -1);
   538  0005CA  0EFF               	movlw	255
   539  0005CC  6E32               	movwf	tlc_set@value+1,c
   540  0005CE  6831               	setf	tlc_set@value,c
   541  0005D0  0E0D               	movlw	13
   542  0005D2  ECA3  F003         	call	_tlc_set
   543                           
   544                           ;main.c: 100: tlc_update();
   545  0005D6  ECF6  F002         	call	_tlc_update	;wreg free
   546                           
   547                           ;main.c: 101: delay_sec();
   548  0005DA  EC10  F004         	call	_delay_sec	;wreg free
   549                           
   550                           ;main.c: 102: delay_sec();
   551  0005DE  EC10  F004         	call	_delay_sec	;wreg free
   552                           
   553                           ;main.c: 103: delay_sec();
   554  0005E2  EC10  F004         	call	_delay_sec	;wreg free
   555                           
   556                           ;main.c: 104: delay_sec();
   557  0005E6  EC10  F004         	call	_delay_sec	;wreg free
   558  0005EA  D771               	goto	l968
   559  0005EC                     __end_of_main:
   560                           	opt stack 0
   561                           pclatu	equ	0xFFB
   562                           pclath	equ	0xFFA
   563                           tblptru	equ	0xFF8
   564                           tblptrh	equ	0xFF7
   565                           tblptrl	equ	0xFF6
   566                           tablat	equ	0xFF5
   567                           prodh	equ	0xFF4
   568                           prodl	equ	0xFF3
   569                           postinc0	equ	0xFEE
   570                           fsr0h	equ	0xFEA
   571                           fsr0l	equ	0xFE9
   572                           wreg	equ	0xFE8
   573                           fsr1h	equ	0xFE2
   574                           fsr1l	equ	0xFE1
   575                           fsr2h	equ	0xFDA
   576                           fsr2l	equ	0xFD9
   577                           status	equ	0xFD8
   578                           
   579 ;; *************** function _tlc_write *****************
   580 ;; Defined at:
   581 ;;		line 221 in file "tlc5940.c"
   582 ;; Parameters:    Size  Location     Type
   583 ;;  tlc_servo_nu    1    wreg     unsigned char 
   584 ;;  value           2   15[COMRAM] int 
   585 ;; Auto vars:     Size  Location     Type
   586 ;;  tlc_servo_nu    1   23[COMRAM] unsigned char 
   587 ;;  i               1   24[COMRAM] unsigned char 
   588 ;;  counter         1   22[COMRAM] unsigned char 
   589 ;; Return value:  Size  Location     Type
   590 ;;		None               void
   591 ;; Registers used:
   592 ;;		wreg, fsr2l, fsr2h, status,2, status,0, prodl, prodh, cstack
   593 ;; Tracked objects:
   594 ;;		On entry : 0/0
   595 ;;		On exit  : 0/0
   596 ;;		Unchanged: 0/0
   597 ;; Data sizes:     COMRAM   BANK0   BANK1   BANK2   BANK3   BANK4   BANK5
   598 ;;      Params:         2       0       0       0       0       0       0
   599 ;;      Locals:         3       0       0       0       0       0       0
   600 ;;      Temps:          5       0       0       0       0       0       0
   601 ;;      Totals:        10       0       0       0       0       0       0
   602 ;;Total ram usage:       10 bytes
   603 ;; Hardware stack levels used:    1
   604 ;; Hardware stack levels required when called:    2
   605 ;; This function calls:
   606 ;;		_tlc_spi_send_data
   607 ;; This function is called by:
   608 ;;		_main
   609 ;; This function uses a non-reentrant model
   610 ;;
   611                           
   612                           	psect	text1
   613  00037A                     __ptext1:
   614                           	opt stack 0
   615  00037A                     _tlc_write:
   616                           	opt stack 28
   617                           
   618                           ;incstack = 0
   619                           ;tlc_write@tlc_servo_number stored from wreg
   620  00037A  6E3A               	movwf	tlc_write@tlc_servo_number,c
   621                           
   622                           ;tlc5940.c: 223: if(value == -1 || value < -1 || value > 180)
   623  00037C  2832               	incf	tlc_write@value,w,c
   624  00037E  B4D8               	btfsc	status,2,c
   625  000380  2833               	incf	tlc_write@value+1,w,c
   626  000382  B4D8               	btfsc	status,2,c
   627  000384  D010               	goto	l852
   628  000386  5033               	movf	tlc_write@value+1,w,c
   629  000388  0A80               	xorlw	128
   630  00038A  0F81               	addlw	-127
   631  00038C  0EFF               	movlw	255
   632  00038E  B4D8               	btfsc	status,2,c
   633  000390  5C32               	subwf	tlc_write@value,w,c
   634  000392  A0D8               	btfss	status,0,c
   635  000394  D008               	goto	l852
   636  000396  5033               	movf	tlc_write@value+1,w,c
   637  000398  0A80               	xorlw	128
   638  00039A  0F80               	addlw	-128
   639  00039C  0EB5               	movlw	181
   640  00039E  B4D8               	btfsc	status,2,c
   641  0003A0  5C32               	subwf	tlc_write@value,w,c
   642  0003A2  A0D8               	btfss	status,0,c
   643  0003A4  D014               	goto	l854
   644  0003A6                     l852:
   645                           
   646                           ;tlc5940.c: 224: {
   647                           ;tlc5940.c: 225: tlc_servo[tlc_servo_number] = 0;
   648  0003A6  503A               	movf	tlc_write@tlc_servo_number,w,c
   649  0003A8  0D01               	mullw	1
   650  0003AA  0E01               	movlw	low _tlc_servo
   651  0003AC  24F3               	addwf	prodl,w,c
   652  0003AE  6ED9               	movwf	fsr2l,c
   653  0003B0  0E00               	movlw	high _tlc_servo
   654  0003B2  20F4               	addwfc	prodh,w,c
   655  0003B4  6EDA               	movwf	fsr2h,c
   656  0003B6  0E00               	movlw	0
   657  0003B8  6EDF               	movwf	indf2,c
   658                           
   659                           ;tlc5940.c: 226: tlc_servo_temp[tlc_servo_number] = 0;
   660  0003BA  503A               	movf	tlc_write@tlc_servo_number,w,c
   661  0003BC  0D01               	mullw	1
   662  0003BE  0E11               	movlw	low _tlc_servo_temp
   663  0003C0  24F3               	addwf	prodl,w,c
   664  0003C2  6ED9               	movwf	fsr2l,c
   665  0003C4  0E00               	movlw	high _tlc_servo_temp
   666  0003C6  20F4               	addwfc	prodh,w,c
   667  0003C8  6EDA               	movwf	fsr2h,c
   668  0003CA  0E00               	movlw	0
   669  0003CC  D015               	goto	L1
   670  0003CE                     l854:
   671                           
   672                           ;tlc5940.c: 228: else
   673                           ;tlc5940.c: 229: {
   674                           ;tlc5940.c: 230: tlc_servo[tlc_servo_number] = value + 55;
   675  0003CE  503A               	movf	tlc_write@tlc_servo_number,w,c
   676  0003D0  0D01               	mullw	1
   677  0003D2  0E01               	movlw	low _tlc_servo
   678  0003D4  24F3               	addwf	prodl,w,c
   679  0003D6  6ED9               	movwf	fsr2l,c
   680  0003D8  0E00               	movlw	high _tlc_servo
   681  0003DA  20F4               	addwfc	prodh,w,c
   682  0003DC  6EDA               	movwf	fsr2h,c
   683  0003DE  5032               	movf	tlc_write@value,w,c
   684  0003E0  0F37               	addlw	55
   685  0003E2  6EDF               	movwf	indf2,c
   686                           
   687                           ;tlc5940.c: 231: tlc_servo_temp[tlc_servo_number] = value + 55;
   688  0003E4  503A               	movf	tlc_write@tlc_servo_number,w,c
   689  0003E6  0D01               	mullw	1
   690  0003E8  0E11               	movlw	low _tlc_servo_temp
   691  0003EA  24F3               	addwf	prodl,w,c
   692  0003EC  6ED9               	movwf	fsr2l,c
   693  0003EE  0E00               	movlw	high _tlc_servo_temp
   694  0003F0  20F4               	addwfc	prodh,w,c
   695  0003F2  6EDA               	movwf	fsr2h,c
   696  0003F4  5032               	movf	tlc_write@value,w,c
   697  0003F6  0F37               	addlw	55
   698  0003F8                     L1:
   699  0003F8  6EDF               	movwf	indf2,c
   700                           
   701                           ;tlc5940.c: 232: }
   702                           ;tlc5940.c: 236: _delay((unsigned long)((1)*(8000000/4000000.0)));
   703  0003FA  D000               	nop2		;2 cycle nop
   704                           
   705                           ;tlc5940.c: 239: LATDbits.LD1 = 0;
   706  0003FC  928C               	bcf	3980,1,c	;volatile
   707                           
   708                           ;tlc5940.c: 240: LATDbits.LD0 = 0;
   709  0003FE  908C               	bcf	3980,0,c	;volatile
   710                           
   711                           ;tlc5940.c: 241: LATDbits.LD2 = 0;
   712  000400  948C               	bcf	3980,2,c	;volatile
   713                           
   714                           ;tlc5940.c: 243: char counter = 0;
   715  000402  0E00               	movlw	0
   716  000404  6E39               	movwf	tlc_write@counter,c
   717                           
   718                           ;tlc5940.c: 244: for(char i = 15; i > 7; i--)
   719  000406  0E0F               	movlw	15
   720  000408  6E3B               	movwf	tlc_write@i,c
   721  00040A  0E08               	movlw	8
   722  00040C  5C3B               	subwf	tlc_write@i,w,c
   723  00040E  A0D8               	btfss	status,0,c
   724  000410  D052               	goto	l73
   725                           
   726                           ;tlc5940.c: 245: {
   727                           ;tlc5940.c: 246: tlc_spi_send_data(tlc_servo[i - counter]>>4);
   728  000412  5039               	movf	tlc_write@counter,w,c
   729  000414  6E34               	movwf	??_tlc_write& (0+255),c
   730  000416  6A35               	clrf	(??_tlc_write+1)& (0+255),c
   731  000418  1E34               	comf	??_tlc_write,f,c
   732  00041A  1E35               	comf	??_tlc_write+1,f,c
   733  00041C  4A34               	infsnz	??_tlc_write,f,c
   734  00041E  2A35               	incf	??_tlc_write+1,f,c
   735  000420  503B               	movf	tlc_write@i,w,c
   736  000422  6E36               	movwf	(??_tlc_write+2)& (0+255),c
   737  000424  6A37               	clrf	(??_tlc_write+3)& (0+255),c
   738  000426  5034               	movf	??_tlc_write,w,c
   739  000428  2636               	addwf	??_tlc_write+2,f,c
   740  00042A  5035               	movf	??_tlc_write+1,w,c
   741  00042C  2237               	addwfc	??_tlc_write+3,f,c
   742  00042E  0E01               	movlw	low _tlc_servo
   743  000430  2436               	addwf	??_tlc_write+2,w,c
   744  000432  6ED9               	movwf	fsr2l,c
   745  000434  0E00               	movlw	high _tlc_servo
   746  000436  2037               	addwfc	??_tlc_write+3,w,c
   747  000438  6EDA               	movwf	fsr2h,c
   748  00043A  50DF               	movf	indf2,w,c
   749  00043C  6E38               	movwf	(??_tlc_write+4)& (0+255),c
   750  00043E  3838               	swapf	??_tlc_write+4,w,c
   751  000440  0B0F               	andlw	15
   752  000442  EC5A  F004         	call	_tlc_spi_send_data
   753                           
   754                           ;tlc5940.c: 247: tlc_spi_send_data(tlc_servo[i - counter]<<4);
   755  000446  5039               	movf	tlc_write@counter,w,c
   756  000448  6E34               	movwf	??_tlc_write& (0+255),c
   757  00044A  6A35               	clrf	(??_tlc_write+1)& (0+255),c
   758  00044C  1E34               	comf	??_tlc_write,f,c
   759  00044E  1E35               	comf	??_tlc_write+1,f,c
   760  000450  4A34               	infsnz	??_tlc_write,f,c
   761  000452  2A35               	incf	??_tlc_write+1,f,c
   762  000454  503B               	movf	tlc_write@i,w,c
   763  000456  6E36               	movwf	(??_tlc_write+2)& (0+255),c
   764  000458  6A37               	clrf	(??_tlc_write+3)& (0+255),c
   765  00045A  5034               	movf	??_tlc_write,w,c
   766  00045C  2636               	addwf	??_tlc_write+2,f,c
   767  00045E  5035               	movf	??_tlc_write+1,w,c
   768  000460  2237               	addwfc	??_tlc_write+3,f,c
   769  000462  0E01               	movlw	low _tlc_servo
   770  000464  2436               	addwf	??_tlc_write+2,w,c
   771  000466  6ED9               	movwf	fsr2l,c
   772  000468  0E00               	movlw	high _tlc_servo
   773  00046A  2037               	addwfc	??_tlc_write+3,w,c
   774  00046C  6EDA               	movwf	fsr2h,c
   775  00046E  50DF               	movf	indf2,w,c
   776  000470  6E38               	movwf	(??_tlc_write+4)& (0+255),c
   777  000472  3838               	swapf	??_tlc_write+4,w,c
   778  000474  0BF0               	andlw	240
   779  000476  EC5A  F004         	call	_tlc_spi_send_data
   780                           
   781                           ;tlc5940.c: 248: tlc_spi_send_data(tlc_servo[i - (counter + 1)]);
   782  00047A  5039               	movf	tlc_write@counter,w,c
   783  00047C  6E34               	movwf	??_tlc_write& (0+255),c
   784  00047E  6A35               	clrf	(??_tlc_write+1)& (0+255),c
   785  000480  0E01               	movlw	1
   786  000482  2634               	addwf	??_tlc_write,f,c
   787  000484  0E00               	movlw	0
   788  000486  2235               	addwfc	??_tlc_write+1,f,c
   789  000488  1E34               	comf	??_tlc_write,f,c
   790  00048A  1E35               	comf	??_tlc_write+1,f,c
   791  00048C  4A34               	infsnz	??_tlc_write,f,c
   792  00048E  2A35               	incf	??_tlc_write+1,f,c
   793  000490  503B               	movf	tlc_write@i,w,c
   794  000492  6E36               	movwf	(??_tlc_write+2)& (0+255),c
   795  000494  6A37               	clrf	(??_tlc_write+3)& (0+255),c
   796  000496  5034               	movf	??_tlc_write,w,c
   797  000498  2636               	addwf	??_tlc_write+2,f,c
   798  00049A  5035               	movf	??_tlc_write+1,w,c
   799  00049C  2237               	addwfc	??_tlc_write+3,f,c
   800  00049E  0E01               	movlw	low _tlc_servo
   801  0004A0  2436               	addwf	??_tlc_write+2,w,c
   802  0004A2  6ED9               	movwf	fsr2l,c
   803  0004A4  0E00               	movlw	high _tlc_servo
   804  0004A6  2037               	addwfc	??_tlc_write+3,w,c
   805  0004A8  6EDA               	movwf	fsr2h,c
   806  0004AA  50DF               	movf	indf2,w,c
   807  0004AC  EC5A  F004         	call	_tlc_spi_send_data
   808                           
   809                           ;tlc5940.c: 249: counter++;
   810  0004B0  2A39               	incf	tlc_write@counter,f,c
   811  0004B2  063B               	decf	tlc_write@i,f,c
   812  0004B4  D7AA               	goto	L2
   813  0004B6                     l73:
   814                           
   815                           ;tlc5940.c: 250: }
   816                           ;tlc5940.c: 253: _delay((unsigned long)((1)*(8000000/4000000.0)));
   817  0004B6  D000               	nop2		;2 cycle nop
   818                           
   819                           ;tlc5940.c: 254: LATDbits.LD0 = 1;
   820  0004B8  808C               	bsf	3980,0,c	;volatile
   821                           
   822                           ;tlc5940.c: 255: _delay((unsigned long)((1)*(8000000/4000000.0)));
   823  0004BA  D000               	nop2		;2 cycle nop
   824                           
   825                           ;tlc5940.c: 256: LATDbits.LD0 = 0;
   826  0004BC  908C               	bcf	3980,0,c	;volatile
   827                           
   828                           ;tlc5940.c: 257: _delay((unsigned long)((1)*(8000000/4000000.0)));
   829  0004BE  D000               	nop2		;2 cycle nop
   830  0004C0  0012               	return	
   831  0004C2                     __end_of_tlc_write:
   832                           	opt stack 0
   833                           pclatu	equ	0xFFB
   834                           pclath	equ	0xFFA
   835                           tblptru	equ	0xFF8
   836                           tblptrh	equ	0xFF7
   837                           tblptrl	equ	0xFF6
   838                           tablat	equ	0xFF5
   839                           prodh	equ	0xFF4
   840                           prodl	equ	0xFF3
   841                           postinc0	equ	0xFEE
   842                           fsr0h	equ	0xFEA
   843                           fsr0l	equ	0xFE9
   844                           wreg	equ	0xFE8
   845                           fsr1h	equ	0xFE2
   846                           fsr1l	equ	0xFE1
   847                           indf2	equ	0xFDF
   848                           fsr2h	equ	0xFDA
   849                           fsr2l	equ	0xFD9
   850                           status	equ	0xFD8
   851                           
   852 ;; *************** function _tlc_update *****************
   853 ;; Defined at:
   854 ;;		line 158 in file "tlc5940.c"
   855 ;; Parameters:    Size  Location     Type
   856 ;;		None
   857 ;; Auto vars:     Size  Location     Type
   858 ;;  i               1   21[COMRAM] unsigned char 
   859 ;;  counter         1   20[COMRAM] unsigned char 
   860 ;; Return value:  Size  Location     Type
   861 ;;		None               void
   862 ;; Registers used:
   863 ;;		wreg, fsr2l, fsr2h, status,2, status,0, cstack
   864 ;; Tracked objects:
   865 ;;		On entry : 0/0
   866 ;;		On exit  : 0/0
   867 ;;		Unchanged: 0/0
   868 ;; Data sizes:     COMRAM   BANK0   BANK1   BANK2   BANK3   BANK4   BANK5
   869 ;;      Params:         0       0       0       0       0       0       0
   870 ;;      Locals:         2       0       0       0       0       0       0
   871 ;;      Temps:          5       0       0       0       0       0       0
   872 ;;      Totals:         7       0       0       0       0       0       0
   873 ;;Total ram usage:        7 bytes
   874 ;; Hardware stack levels used:    1
   875 ;; Hardware stack levels required when called:    2
   876 ;; This function calls:
   877 ;;		_tlc_spi_send_data
   878 ;; This function is called by:
   879 ;;		_main
   880 ;; This function uses a non-reentrant model
   881 ;;
   882                           
   883                           	psect	text2
   884  0005EC                     __ptext2:
   885                           	opt stack 0
   886  0005EC                     _tlc_update:
   887                           	opt stack 28
   888                           
   889                           ;tlc5940.c: 161: _delay((unsigned long)((1)*(8000000/4000000.0)));
   890                           
   891                           ;incstack = 0
   892  0005EC  D000               	nop2		;2 cycle nop
   893                           
   894                           ;tlc5940.c: 164: LATDbits.LD1 = 0;
   895  0005EE  928C               	bcf	3980,1,c	;volatile
   896                           
   897                           ;tlc5940.c: 165: LATDbits.LD0 = 0;
   898  0005F0  908C               	bcf	3980,0,c	;volatile
   899                           
   900                           ;tlc5940.c: 166: LATDbits.LD2 = 0;
   901  0005F2  948C               	bcf	3980,2,c	;volatile
   902                           
   903                           ;tlc5940.c: 168: char counter = 0;
   904  0005F4  0E00               	movlw	0
   905  0005F6  6E37               	movwf	tlc_update@counter,c
   906                           
   907                           ;tlc5940.c: 169: for(char i = 15; i > 7; i--)
   908  0005F8  0E0F               	movlw	15
   909  0005FA  6E38               	movwf	tlc_update@i,c
   910  0005FC  0E08               	movlw	8
   911  0005FE  5C38               	subwf	tlc_update@i,w,c
   912  000600  A0D8               	btfss	status,0,c
   913  000602  D052               	goto	l57
   914                           
   915                           ;tlc5940.c: 170: {
   916                           ;tlc5940.c: 171: tlc_spi_send_data(tlc_servo[i - counter]>>4);
   917  000604  5037               	movf	tlc_update@counter,w,c
   918  000606  6E32               	movwf	??_tlc_update& (0+255),c
   919  000608  6A33               	clrf	(??_tlc_update+1)& (0+255),c
   920  00060A  1E32               	comf	??_tlc_update,f,c
   921  00060C  1E33               	comf	??_tlc_update+1,f,c
   922  00060E  4A32               	infsnz	??_tlc_update,f,c
   923  000610  2A33               	incf	??_tlc_update+1,f,c
   924  000612  5038               	movf	tlc_update@i,w,c
   925  000614  6E34               	movwf	(??_tlc_update+2)& (0+255),c
   926  000616  6A35               	clrf	(??_tlc_update+3)& (0+255),c
   927  000618  5032               	movf	??_tlc_update,w,c
   928  00061A  2634               	addwf	??_tlc_update+2,f,c
   929  00061C  5033               	movf	??_tlc_update+1,w,c
   930  00061E  2235               	addwfc	??_tlc_update+3,f,c
   931  000620  0E01               	movlw	low _tlc_servo
   932  000622  2434               	addwf	??_tlc_update+2,w,c
   933  000624  6ED9               	movwf	fsr2l,c
   934  000626  0E00               	movlw	high _tlc_servo
   935  000628  2035               	addwfc	??_tlc_update+3,w,c
   936  00062A  6EDA               	movwf	fsr2h,c
   937  00062C  50DF               	movf	indf2,w,c
   938  00062E  6E36               	movwf	(??_tlc_update+4)& (0+255),c
   939  000630  3836               	swapf	??_tlc_update+4,w,c
   940  000632  0B0F               	andlw	15
   941  000634  EC5A  F004         	call	_tlc_spi_send_data
   942                           
   943                           ;tlc5940.c: 172: tlc_spi_send_data(tlc_servo[i - counter]<<4);
   944  000638  5037               	movf	tlc_update@counter,w,c
   945  00063A  6E32               	movwf	??_tlc_update& (0+255),c
   946  00063C  6A33               	clrf	(??_tlc_update+1)& (0+255),c
   947  00063E  1E32               	comf	??_tlc_update,f,c
   948  000640  1E33               	comf	??_tlc_update+1,f,c
   949  000642  4A32               	infsnz	??_tlc_update,f,c
   950  000644  2A33               	incf	??_tlc_update+1,f,c
   951  000646  5038               	movf	tlc_update@i,w,c
   952  000648  6E34               	movwf	(??_tlc_update+2)& (0+255),c
   953  00064A  6A35               	clrf	(??_tlc_update+3)& (0+255),c
   954  00064C  5032               	movf	??_tlc_update,w,c
   955  00064E  2634               	addwf	??_tlc_update+2,f,c
   956  000650  5033               	movf	??_tlc_update+1,w,c
   957  000652  2235               	addwfc	??_tlc_update+3,f,c
   958  000654  0E01               	movlw	low _tlc_servo
   959  000656  2434               	addwf	??_tlc_update+2,w,c
   960  000658  6ED9               	movwf	fsr2l,c
   961  00065A  0E00               	movlw	high _tlc_servo
   962  00065C  2035               	addwfc	??_tlc_update+3,w,c
   963  00065E  6EDA               	movwf	fsr2h,c
   964  000660  50DF               	movf	indf2,w,c
   965  000662  6E36               	movwf	(??_tlc_update+4)& (0+255),c
   966  000664  3836               	swapf	??_tlc_update+4,w,c
   967  000666  0BF0               	andlw	240
   968  000668  EC5A  F004         	call	_tlc_spi_send_data
   969                           
   970                           ;tlc5940.c: 173: tlc_spi_send_data(tlc_servo[i - (counter + 1)]);
   971  00066C  5037               	movf	tlc_update@counter,w,c
   972  00066E  6E32               	movwf	??_tlc_update& (0+255),c
   973  000670  6A33               	clrf	(??_tlc_update+1)& (0+255),c
   974  000672  0E01               	movlw	1
   975  000674  2632               	addwf	??_tlc_update,f,c
   976  000676  0E00               	movlw	0
   977  000678  2233               	addwfc	??_tlc_update+1,f,c
   978  00067A  1E32               	comf	??_tlc_update,f,c
   979  00067C  1E33               	comf	??_tlc_update+1,f,c
   980  00067E  4A32               	infsnz	??_tlc_update,f,c
   981  000680  2A33               	incf	??_tlc_update+1,f,c
   982  000682  5038               	movf	tlc_update@i,w,c
   983  000684  6E34               	movwf	(??_tlc_update+2)& (0+255),c
   984  000686  6A35               	clrf	(??_tlc_update+3)& (0+255),c
   985  000688  5032               	movf	??_tlc_update,w,c
   986  00068A  2634               	addwf	??_tlc_update+2,f,c
   987  00068C  5033               	movf	??_tlc_update+1,w,c
   988  00068E  2235               	addwfc	??_tlc_update+3,f,c
   989  000690  0E01               	movlw	low _tlc_servo
   990  000692  2434               	addwf	??_tlc_update+2,w,c
   991  000694  6ED9               	movwf	fsr2l,c
   992  000696  0E00               	movlw	high _tlc_servo
   993  000698  2035               	addwfc	??_tlc_update+3,w,c
   994  00069A  6EDA               	movwf	fsr2h,c
   995  00069C  50DF               	movf	indf2,w,c
   996  00069E  EC5A  F004         	call	_tlc_spi_send_data
   997                           
   998                           ;tlc5940.c: 174: counter++;
   999  0006A2  2A37               	incf	tlc_update@counter,f,c
  1000  0006A4  0638               	decf	tlc_update@i,f,c
  1001  0006A6  D7AA               	goto	L3
  1002  0006A8                     l57:
  1003                           
  1004                           ;tlc5940.c: 175: }
  1005                           ;tlc5940.c: 178: _delay((unsigned long)((1)*(8000000/4000000.0)));
  1006  0006A8  D000               	nop2		;2 cycle nop
  1007                           
  1008                           ;tlc5940.c: 179: LATDbits.LD0 = 1;
  1009  0006AA  808C               	bsf	3980,0,c	;volatile
  1010                           
  1011                           ;tlc5940.c: 180: _delay((unsigned long)((1)*(8000000/4000000.0)));
  1012  0006AC  D000               	nop2		;2 cycle nop
  1013                           
  1014                           ;tlc5940.c: 181: LATDbits.LD0 = 0;
  1015  0006AE  908C               	bcf	3980,0,c	;volatile
  1016                           
  1017                           ;tlc5940.c: 182: _delay((unsigned long)((1)*(8000000/4000000.0)));
  1018  0006B0  D000               	nop2		;2 cycle nop
  1019  0006B2  0012               	return	
  1020  0006B4                     __end_of_tlc_update:
  1021                           	opt stack 0
  1022                           pclatu	equ	0xFFB
  1023                           pclath	equ	0xFFA
  1024                           tblptru	equ	0xFF8
  1025                           tblptrh	equ	0xFF7
  1026                           tblptrl	equ	0xFF6
  1027                           tablat	equ	0xFF5
  1028                           prodh	equ	0xFF4
  1029                           prodl	equ	0xFF3
  1030                           postinc0	equ	0xFEE
  1031                           fsr0h	equ	0xFEA
  1032                           fsr0l	equ	0xFE9
  1033                           wreg	equ	0xFE8
  1034                           fsr1h	equ	0xFE2
  1035                           fsr1l	equ	0xFE1
  1036                           indf2	equ	0xFDF
  1037                           fsr2h	equ	0xFDA
  1038                           fsr2l	equ	0xFD9
  1039                           status	equ	0xFD8
  1040                           
  1041 ;; *************** function _tlc_sweep_update *****************
  1042 ;; Defined at:
  1043 ;;		line 285 in file "tlc5940.c"
  1044 ;; Parameters:    Size  Location     Type
  1045 ;;  speed           2   17[COMRAM] int 
  1046 ;; Auto vars:     Size  Location     Type
  1047 ;;  i               1   27[COMRAM] unsigned char 
  1048 ;;  i               2   28[COMRAM] int 
  1049 ;;  counter         1   26[COMRAM] unsigned char 
  1050 ;;  j               2   24[COMRAM] int 
  1051 ;; Return value:  Size  Location     Type
  1052 ;;		None               void
  1053 ;; Registers used:
  1054 ;;		wreg, fsr1l, fsr1h, fsr2l, fsr2h, status,2, status,0, prodl, cstack
  1055 ;; Tracked objects:
  1056 ;;		On entry : 0/0
  1057 ;;		On exit  : 0/0
  1058 ;;		Unchanged: 0/0
  1059 ;; Data sizes:     COMRAM   BANK0   BANK1   BANK2   BANK3   BANK4   BANK5
  1060 ;;      Params:         2       0       0       0       0       0       0
  1061 ;;      Locals:         6       0       0       0       0       0       0
  1062 ;;      Temps:          5       0       0       0       0       0       0
  1063 ;;      Totals:        13       0       0       0       0       0       0
  1064 ;;Total ram usage:       13 bytes
  1065 ;; Hardware stack levels used:    1
  1066 ;; Hardware stack levels required when called:    2
  1067 ;; This function calls:
  1068 ;;		_tlc_spi_send_data
  1069 ;;		_tlc_sweep_delay
  1070 ;; This function is called by:
  1071 ;;		_main
  1072 ;; This function uses a non-reentrant model
  1073 ;;
  1074                           
  1075                           	psect	text3
  1076  00001C                     __ptext3:
  1077                           	opt stack 0
  1078  00001C                     _tlc_sweep_update:
  1079                           	opt stack 28
  1080                           
  1081                           ;tlc5940.c: 288: if(speed <= 1)
  1082                           
  1083                           ;incstack = 0
  1084  00001C  5035               	movf	tlc_sweep_update@speed+1,w,c
  1085  00001E  0A80               	xorlw	128
  1086  000020  6EF3               	movwf	prodl,c
  1087  000022  0E80               	movlw	128
  1088  000024  5CF3               	subwf	prodl,w,c
  1089  000026  0E02               	movlw	2
  1090  000028  B4D8               	btfsc	status,2,c
  1091  00002A  5C34               	subwf	tlc_sweep_update@speed,w,c
  1092  00002C  B0D8               	btfsc	status,0,c
  1093  00002E  D004               	goto	l894
  1094                           
  1095                           ;tlc5940.c: 289: {
  1096                           ;tlc5940.c: 290: speed = 100;
  1097  000030  0E00               	movlw	0
  1098  000032  6E35               	movwf	tlc_sweep_update@speed+1,c
  1099  000034  0E64               	movlw	100
  1100  000036  D014               	goto	L5
  1101  000038                     l894:
  1102                           
  1103                           ;tlc5940.c: 292: else if(speed == 2)
  1104  000038  5034               	movf	tlc_sweep_update@speed,w,c
  1105  00003A  0A02               	xorlw	2
  1106  00003C  1035               	iorwf	tlc_sweep_update@speed+1,w,c
  1107  00003E  A4D8               	btfss	status,2,c
  1108  000040  D004               	goto	l898
  1109                           
  1110                           ;tlc5940.c: 293: {
  1111                           ;tlc5940.c: 294: speed = 50;
  1112  000042  0E00               	movlw	0
  1113  000044  6E35               	movwf	tlc_sweep_update@speed+1,c
  1114  000046  0E32               	movlw	50
  1115  000048  D00B               	goto	L5
  1116  00004A                     l898:
  1117                           
  1118                           ;tlc5940.c: 296: else if(speed >= 3)
  1119  00004A  5035               	movf	tlc_sweep_update@speed+1,w,c
  1120  00004C  0A80               	xorlw	128
  1121  00004E  0F80               	addlw	-128
  1122  000050  0E03               	movlw	3
  1123  000052  B4D8               	btfsc	status,2,c
  1124  000054  5C34               	subwf	tlc_sweep_update@speed,w,c
  1125  000056  A0D8               	btfss	status,0,c
  1126  000058  D004               	goto	l91
  1127                           
  1128                           ;tlc5940.c: 297: {
  1129                           ;tlc5940.c: 298: speed = 10;
  1130  00005A  0E00               	movlw	0
  1131  00005C  6E35               	movwf	tlc_sweep_update@speed+1,c
  1132  00005E  0E0A               	movlw	10
  1133  000060                     L5:
  1134  000060  6E34               	movwf	tlc_sweep_update@speed,c
  1135  000062                     l91:
  1136                           
  1137                           ;tlc5940.c: 299: }
  1138                           ;tlc5940.c: 301: int j = 0;
  1139  000062  0E00               	movlw	0
  1140  000064  6E3C               	movwf	tlc_sweep_update@j+1,c
  1141  000066  0E00               	movlw	0
  1142  000068  6E3B               	movwf	tlc_sweep_update@j,c
  1143                           
  1144                           ;tlc5940.c: 302: while(j != 16)
  1145  00006A  D0C1               	goto	l936
  1146  00006C                     l902:
  1147                           
  1148                           ;tlc5940.c: 303: {
  1149                           ;tlc5940.c: 305: j = 0;
  1150  00006C  0E00               	movlw	0
  1151  00006E  6E3C               	movwf	tlc_sweep_update@j+1,c
  1152  000070  0E00               	movlw	0
  1153  000072  6E3B               	movwf	tlc_sweep_update@j,c
  1154                           
  1155                           ;tlc5940.c: 306: for(int i = 0; i < 16; i++)
  1156  000074  0E00               	movlw	0
  1157  000076  6E40               	movwf	tlc_sweep_update@i+1,c
  1158  000078  0E00               	movlw	0
  1159  00007A  6E3F               	movwf	tlc_sweep_update@i,c
  1160  00007C  5040               	movf	tlc_sweep_update@i+1,w,c
  1161  00007E  0A80               	xorlw	128
  1162  000080  0F80               	addlw	-128
  1163  000082  0E10               	movlw	16
  1164  000084  B4D8               	btfsc	status,2,c
  1165  000086  5C3F               	subwf	tlc_sweep_update@i,w,c
  1166  000088  B0D8               	btfsc	status,0,c
  1167  00008A  D048               	goto	l98
  1168                           
  1169                           ;tlc5940.c: 307: {
  1170                           ;tlc5940.c: 308: if(tlc_servo_temp[i] != tlc_servo[i])
  1171  00008C  0E01               	movlw	low _tlc_servo
  1172  00008E  243F               	addwf	tlc_sweep_update@i,w,c
  1173  000090  6ED9               	movwf	fsr2l,c
  1174  000092  0E00               	movlw	high _tlc_servo
  1175  000094  2040               	addwfc	tlc_sweep_update@i+1,w,c
  1176  000096  6EDA               	movwf	fsr2h,c
  1177  000098  50DF               	movf	indf2,w,c
  1178  00009A  6E36               	movwf	??_tlc_sweep_update& (0+255),c
  1179  00009C  0E11               	movlw	low _tlc_servo_temp
  1180  00009E  243F               	addwf	tlc_sweep_update@i,w,c
  1181  0000A0  6ED9               	movwf	fsr2l,c
  1182  0000A2  0E00               	movlw	high _tlc_servo_temp
  1183  0000A4  2040               	addwfc	tlc_sweep_update@i+1,w,c
  1184  0000A6  6EDA               	movwf	fsr2h,c
  1185  0000A8  50DF               	movf	indf2,w,c
  1186  0000AA  1836               	xorwf	??_tlc_sweep_update,w,c
  1187  0000AC  B4D8               	btfsc	status,2,c
  1188  0000AE  D031               	goto	l916
  1189                           
  1190                           ;tlc5940.c: 309: {
  1191                           ;tlc5940.c: 310: if(tlc_servo_temp[i] > tlc_servo[i])
  1192  0000B0  0E01               	movlw	low _tlc_servo
  1193  0000B2  243F               	addwf	tlc_sweep_update@i,w,c
  1194  0000B4  6ED9               	movwf	fsr2l,c
  1195  0000B6  0E00               	movlw	high _tlc_servo
  1196  0000B8  2040               	addwfc	tlc_sweep_update@i+1,w,c
  1197  0000BA  6EDA               	movwf	fsr2h,c
  1198  0000BC  50DF               	movf	indf2,w,c
  1199  0000BE  6E36               	movwf	??_tlc_sweep_update& (0+255),c
  1200  0000C0  0E11               	movlw	low _tlc_servo_temp
  1201  0000C2  243F               	addwf	tlc_sweep_update@i,w,c
  1202  0000C4  6ED9               	movwf	fsr2l,c
  1203  0000C6  0E00               	movlw	high _tlc_servo_temp
  1204  0000C8  2040               	addwfc	tlc_sweep_update@i+1,w,c
  1205  0000CA  6EDA               	movwf	fsr2h,c
  1206  0000CC  50DF               	movf	indf2,w,c
  1207  0000CE  5C36               	subwf	??_tlc_sweep_update,w,c
  1208  0000D0  B0D8               	btfsc	status,0,c
  1209  0000D2  D00F               	goto	l914
  1210                           
  1211                           ;tlc5940.c: 311: {
  1212                           ;tlc5940.c: 312: tlc_servo[i] = tlc_servo[i] + 5;
  1213  0000D4  0E01               	movlw	low _tlc_servo
  1214  0000D6  243F               	addwf	tlc_sweep_update@i,w,c
  1215  0000D8  6ED9               	movwf	fsr2l,c
  1216  0000DA  0E00               	movlw	high _tlc_servo
  1217  0000DC  2040               	addwfc	tlc_sweep_update@i+1,w,c
  1218  0000DE  6EDA               	movwf	fsr2h,c
  1219  0000E0  0E01               	movlw	low _tlc_servo
  1220  0000E2  243F               	addwf	tlc_sweep_update@i,w,c
  1221  0000E4  6EE1               	movwf	fsr1l,c
  1222  0000E6  0E00               	movlw	high _tlc_servo
  1223  0000E8  2040               	addwfc	tlc_sweep_update@i+1,w,c
  1224  0000EA  6EE2               	movwf	fsr1h,c
  1225  0000EC  50E7               	movf	indf1,w,c
  1226  0000EE  0F05               	addlw	5
  1227  0000F0  D00E               	goto	L6
  1228  0000F2                     l914:
  1229                           
  1230                           ;tlc5940.c: 314: else
  1231                           ;tlc5940.c: 315: {
  1232                           ;tlc5940.c: 316: tlc_servo[i] = tlc_servo[i] - 5;
  1233  0000F2  0E01               	movlw	low _tlc_servo
  1234  0000F4  243F               	addwf	tlc_sweep_update@i,w,c
  1235  0000F6  6ED9               	movwf	fsr2l,c
  1236  0000F8  0E00               	movlw	high _tlc_servo
  1237  0000FA  2040               	addwfc	tlc_sweep_update@i+1,w,c
  1238  0000FC  6EDA               	movwf	fsr2h,c
  1239  0000FE  0E01               	movlw	low _tlc_servo
  1240  000100  243F               	addwf	tlc_sweep_update@i,w,c
  1241  000102  6EE1               	movwf	fsr1l,c
  1242  000104  0E00               	movlw	high _tlc_servo
  1243  000106  2040               	addwfc	tlc_sweep_update@i+1,w,c
  1244  000108  6EE2               	movwf	fsr1h,c
  1245  00010A  50E7               	movf	indf1,w,c
  1246  00010C  0FFB               	addlw	251
  1247  00010E                     L6:
  1248  00010E  6EDF               	movwf	indf2,c
  1249  000110  D002               	goto	l102
  1250  000112                     l916:
  1251                           
  1252                           ;tlc5940.c: 319: else
  1253                           ;tlc5940.c: 320: {
  1254                           ;tlc5940.c: 321: j++;
  1255  000112  4A3B               	infsnz	tlc_sweep_update@j,f,c
  1256  000114  2A3C               	incf	tlc_sweep_update@j+1,f,c
  1257  000116                     l102:
  1258  000116  4A3F               	infsnz	tlc_sweep_update@i,f,c
  1259  000118  2A40               	incf	tlc_sweep_update@i+1,f,c
  1260  00011A  D7B0               	goto	L7
  1261  00011C                     l98:
  1262                           
  1263                           ;tlc5940.c: 322: }
  1264                           ;tlc5940.c: 323: }
  1265                           ;tlc5940.c: 326: _delay((unsigned long)((1)*(8000000/4000000.0)));
  1266  00011C  D000               	nop2		;2 cycle nop
  1267                           
  1268                           ;tlc5940.c: 329: LATDbits.LD1 = 0;
  1269  00011E  928C               	bcf	3980,1,c	;volatile
  1270                           
  1271                           ;tlc5940.c: 330: LATDbits.LD0 = 0;
  1272  000120  908C               	bcf	3980,0,c	;volatile
  1273                           
  1274                           ;tlc5940.c: 331: LATDbits.LD2 = 0;
  1275  000122  948C               	bcf	3980,2,c	;volatile
  1276                           
  1277                           ;tlc5940.c: 333: char counter = 0;
  1278  000124  0E00               	movlw	0
  1279  000126  6E3D               	movwf	tlc_sweep_update@counter,c
  1280                           
  1281                           ;tlc5940.c: 334: for(char i = 15; i > 7; i--)
  1282  000128  0E0F               	movlw	15
  1283  00012A  6E3E               	movwf	tlc_sweep_update@i_627,c
  1284  00012C  0E08               	movlw	8
  1285  00012E  5C3E               	subwf	tlc_sweep_update@i_627,w,c
  1286  000130  A0D8               	btfss	status,0,c
  1287  000132  D052               	goto	l104
  1288                           
  1289                           ;tlc5940.c: 335: {
  1290                           ;tlc5940.c: 336: tlc_spi_send_data(tlc_servo[i - counter]>>4);
  1291  000134  503D               	movf	tlc_sweep_update@counter,w,c
  1292  000136  6E36               	movwf	??_tlc_sweep_update& (0+255),c
  1293  000138  6A37               	clrf	(??_tlc_sweep_update+1)& (0+255),c
  1294  00013A  1E36               	comf	??_tlc_sweep_update,f,c
  1295  00013C  1E37               	comf	??_tlc_sweep_update+1,f,c
  1296  00013E  4A36               	infsnz	??_tlc_sweep_update,f,c
  1297  000140  2A37               	incf	??_tlc_sweep_update+1,f,c
  1298  000142  503E               	movf	tlc_sweep_update@i_627,w,c
  1299  000144  6E38               	movwf	(??_tlc_sweep_update+2)& (0+255),c
  1300  000146  6A39               	clrf	(??_tlc_sweep_update+3)& (0+255),c
  1301  000148  5036               	movf	??_tlc_sweep_update,w,c
  1302  00014A  2638               	addwf	??_tlc_sweep_update+2,f,c
  1303  00014C  5037               	movf	??_tlc_sweep_update+1,w,c
  1304  00014E  2239               	addwfc	??_tlc_sweep_update+3,f,c
  1305  000150  0E01               	movlw	low _tlc_servo
  1306  000152  2438               	addwf	??_tlc_sweep_update+2,w,c
  1307  000154  6ED9               	movwf	fsr2l,c
  1308  000156  0E00               	movlw	high _tlc_servo
  1309  000158  2039               	addwfc	??_tlc_sweep_update+3,w,c
  1310  00015A  6EDA               	movwf	fsr2h,c
  1311  00015C  50DF               	movf	indf2,w,c
  1312  00015E  6E3A               	movwf	(??_tlc_sweep_update+4)& (0+255),c
  1313  000160  383A               	swapf	??_tlc_sweep_update+4,w,c
  1314  000162  0B0F               	andlw	15
  1315  000164  EC5A  F004         	call	_tlc_spi_send_data
  1316                           
  1317                           ;tlc5940.c: 337: tlc_spi_send_data(tlc_servo[i - counter]<<4);
  1318  000168  503D               	movf	tlc_sweep_update@counter,w,c
  1319  00016A  6E36               	movwf	??_tlc_sweep_update& (0+255),c
  1320  00016C  6A37               	clrf	(??_tlc_sweep_update+1)& (0+255),c
  1321  00016E  1E36               	comf	??_tlc_sweep_update,f,c
  1322  000170  1E37               	comf	??_tlc_sweep_update+1,f,c
  1323  000172  4A36               	infsnz	??_tlc_sweep_update,f,c
  1324  000174  2A37               	incf	??_tlc_sweep_update+1,f,c
  1325  000176  503E               	movf	tlc_sweep_update@i_627,w,c
  1326  000178  6E38               	movwf	(??_tlc_sweep_update+2)& (0+255),c
  1327  00017A  6A39               	clrf	(??_tlc_sweep_update+3)& (0+255),c
  1328  00017C  5036               	movf	??_tlc_sweep_update,w,c
  1329  00017E  2638               	addwf	??_tlc_sweep_update+2,f,c
  1330  000180  5037               	movf	??_tlc_sweep_update+1,w,c
  1331  000182  2239               	addwfc	??_tlc_sweep_update+3,f,c
  1332  000184  0E01               	movlw	low _tlc_servo
  1333  000186  2438               	addwf	??_tlc_sweep_update+2,w,c
  1334  000188  6ED9               	movwf	fsr2l,c
  1335  00018A  0E00               	movlw	high _tlc_servo
  1336  00018C  2039               	addwfc	??_tlc_sweep_update+3,w,c
  1337  00018E  6EDA               	movwf	fsr2h,c
  1338  000190  50DF               	movf	indf2,w,c
  1339  000192  6E3A               	movwf	(??_tlc_sweep_update+4)& (0+255),c
  1340  000194  383A               	swapf	??_tlc_sweep_update+4,w,c
  1341  000196  0BF0               	andlw	240
  1342  000198  EC5A  F004         	call	_tlc_spi_send_data
  1343                           
  1344                           ;tlc5940.c: 338: tlc_spi_send_data(tlc_servo[i - (counter + 1)]);
  1345  00019C  503D               	movf	tlc_sweep_update@counter,w,c
  1346  00019E  6E36               	movwf	??_tlc_sweep_update& (0+255),c
  1347  0001A0  6A37               	clrf	(??_tlc_sweep_update+1)& (0+255),c
  1348  0001A2  0E01               	movlw	1
  1349  0001A4  2636               	addwf	??_tlc_sweep_update,f,c
  1350  0001A6  0E00               	movlw	0
  1351  0001A8  2237               	addwfc	??_tlc_sweep_update+1,f,c
  1352  0001AA  1E36               	comf	??_tlc_sweep_update,f,c
  1353  0001AC  1E37               	comf	??_tlc_sweep_update+1,f,c
  1354  0001AE  4A36               	infsnz	??_tlc_sweep_update,f,c
  1355  0001B0  2A37               	incf	??_tlc_sweep_update+1,f,c
  1356  0001B2  503E               	movf	tlc_sweep_update@i_627,w,c
  1357  0001B4  6E38               	movwf	(??_tlc_sweep_update+2)& (0+255),c
  1358  0001B6  6A39               	clrf	(??_tlc_sweep_update+3)& (0+255),c
  1359  0001B8  5036               	movf	??_tlc_sweep_update,w,c
  1360  0001BA  2638               	addwf	??_tlc_sweep_update+2,f,c
  1361  0001BC  5037               	movf	??_tlc_sweep_update+1,w,c
  1362  0001BE  2239               	addwfc	??_tlc_sweep_update+3,f,c
  1363  0001C0  0E01               	movlw	low _tlc_servo
  1364  0001C2  2438               	addwf	??_tlc_sweep_update+2,w,c
  1365  0001C4  6ED9               	movwf	fsr2l,c
  1366  0001C6  0E00               	movlw	high _tlc_servo
  1367  0001C8  2039               	addwfc	??_tlc_sweep_update+3,w,c
  1368  0001CA  6EDA               	movwf	fsr2h,c
  1369  0001CC  50DF               	movf	indf2,w,c
  1370  0001CE  EC5A  F004         	call	_tlc_spi_send_data
  1371                           
  1372                           ;tlc5940.c: 339: counter++;
  1373  0001D2  2A3D               	incf	tlc_sweep_update@counter,f,c
  1374  0001D4  063E               	decf	tlc_sweep_update@i_627,f,c
  1375  0001D6  D7AA               	goto	L8
  1376  0001D8                     l104:
  1377                           
  1378                           ;tlc5940.c: 340: }
  1379                           ;tlc5940.c: 343: _delay((unsigned long)((1)*(8000000/4000000.0)));
  1380  0001D8  D000               	nop2		;2 cycle nop
  1381                           
  1382                           ;tlc5940.c: 344: LATDbits.LD0 = 1;
  1383  0001DA  808C               	bsf	3980,0,c	;volatile
  1384                           
  1385                           ;tlc5940.c: 345: _delay((unsigned long)((1)*(8000000/4000000.0)));
  1386  0001DC  D000               	nop2		;2 cycle nop
  1387                           
  1388                           ;tlc5940.c: 346: LATDbits.LD0 = 0;
  1389  0001DE  908C               	bcf	3980,0,c	;volatile
  1390                           
  1391                           ;tlc5940.c: 347: _delay((unsigned long)((1)*(8000000/4000000.0)));
  1392  0001E0  D000               	nop2		;2 cycle nop
  1393                           
  1394                           ;tlc5940.c: 350: tlc_sweep_delay(speed);
  1395  0001E2  C034  F031         	movff	tlc_sweep_update@speed,tlc_sweep_delay@count
  1396  0001E6  C035  F032         	movff	tlc_sweep_update@speed+1,tlc_sweep_delay@count+1
  1397  0001EA  EC28  F004         	call	_tlc_sweep_delay	;wreg free
  1398  0001EE                     l936:
  1399  0001EE  503B               	movf	tlc_sweep_update@j,w,c
  1400  0001F0  0A10               	xorlw	16
  1401  0001F2  103C               	iorwf	tlc_sweep_update@j+1,w,c
  1402  0001F4  B4D8               	btfsc	status,2,c
  1403  0001F6  0012               	return	
  1404  0001F8  D739               	goto	l902
  1405  0001FA                     __end_of_tlc_sweep_update:
  1406                           	opt stack 0
  1407                           pclatu	equ	0xFFB
  1408                           pclath	equ	0xFFA
  1409                           tblptru	equ	0xFF8
  1410                           tblptrh	equ	0xFF7
  1411                           tblptrl	equ	0xFF6
  1412                           tablat	equ	0xFF5
  1413                           prodh	equ	0xFF4
  1414                           prodl	equ	0xFF3
  1415                           postinc0	equ	0xFEE
  1416                           fsr0h	equ	0xFEA
  1417                           fsr0l	equ	0xFE9
  1418                           wreg	equ	0xFE8
  1419                           indf1	equ	0xFE7
  1420                           fsr1h	equ	0xFE2
  1421                           fsr1l	equ	0xFE1
  1422                           indf2	equ	0xFDF
  1423                           fsr2h	equ	0xFDA
  1424                           fsr2l	equ	0xFD9
  1425                           status	equ	0xFD8
  1426                           
  1427 ;; *************** function _tlc_sweep_delay *****************
  1428 ;; Defined at:
  1429 ;;		line 264 in file "tlc5940.c"
  1430 ;; Parameters:    Size  Location     Type
  1431 ;;  count           2   14[COMRAM] int 
  1432 ;; Auto vars:     Size  Location     Type
  1433 ;;		None
  1434 ;; Return value:  Size  Location     Type
  1435 ;;		None               void
  1436 ;; Registers used:
  1437 ;;		wreg, status,2, status,0
  1438 ;; Tracked objects:
  1439 ;;		On entry : 0/0
  1440 ;;		On exit  : 0/0
  1441 ;;		Unchanged: 0/0
  1442 ;; Data sizes:     COMRAM   BANK0   BANK1   BANK2   BANK3   BANK4   BANK5
  1443 ;;      Params:         2       0       0       0       0       0       0
  1444 ;;      Locals:         0       0       0       0       0       0       0
  1445 ;;      Temps:          1       0       0       0       0       0       0
  1446 ;;      Totals:         3       0       0       0       0       0       0
  1447 ;;Total ram usage:        3 bytes
  1448 ;; Hardware stack levels used:    1
  1449 ;; Hardware stack levels required when called:    1
  1450 ;; This function calls:
  1451 ;;		Nothing
  1452 ;; This function is called by:
  1453 ;;		_tlc_sweep_update
  1454 ;; This function uses a non-reentrant model
  1455 ;;
  1456                           
  1457                           	psect	text4
  1458  000850                     __ptext4:
  1459                           	opt stack 0
  1460  000850                     _tlc_sweep_delay:
  1461                           	opt stack 28
  1462                           
  1463                           ;tlc5940.c: 266: while(count != 0)
  1464                           
  1465                           ;incstack = 0
  1466  000850  D00A               	goto	l77
  1467  000852                     l734:
  1468                           
  1469                           ;tlc5940.c: 267: {
  1470                           ;tlc5940.c: 268: _delay((unsigned long)((1)*(8000000/4000.0)));
  1471  000852  0E03               	movlw	3
  1472  000854  6E33               	movwf	??_tlc_sweep_delay& (0+255),c
  1473  000856  0E98               	movlw	152
  1474  000858                     u377:
  1475  000858  2EE8               	decfsz	wreg,f,c
  1476  00085A  D7FE               	goto	u377
  1477  00085C  2E33               	decfsz	??_tlc_sweep_delay& (0+255),f,c
  1478  00085E  D7FC               	goto	u377
  1479                           
  1480                           ;tlc5940.c: 269: count--;
  1481  000860  0631               	decf	tlc_sweep_delay@count,f,c
  1482  000862  A0D8               	btfss	status,0,c
  1483  000864  0632               	decf	tlc_sweep_delay@count+1,f,c
  1484  000866                     l77:
  1485  000866  5032               	movf	tlc_sweep_delay@count+1,w,c
  1486  000868  1031               	iorwf	tlc_sweep_delay@count,w,c
  1487  00086A  B4D8               	btfsc	status,2,c
  1488  00086C  0012               	return	
  1489  00086E  D7F1               	goto	l734
  1490  000870                     __end_of_tlc_sweep_delay:
  1491                           	opt stack 0
  1492                           pclatu	equ	0xFFB
  1493                           pclath	equ	0xFFA
  1494                           tblptru	equ	0xFF8
  1495                           tblptrh	equ	0xFF7
  1496                           tblptrl	equ	0xFF6
  1497                           tablat	equ	0xFF5
  1498                           prodh	equ	0xFF4
  1499                           prodl	equ	0xFF3
  1500                           postinc0	equ	0xFEE
  1501                           fsr0h	equ	0xFEA
  1502                           fsr0l	equ	0xFE9
  1503                           wreg	equ	0xFE8
  1504                           indf1	equ	0xFE7
  1505                           fsr1h	equ	0xFE2
  1506                           fsr1l	equ	0xFE1
  1507                           indf2	equ	0xFDF
  1508                           fsr2h	equ	0xFDA
  1509                           fsr2l	equ	0xFD9
  1510                           status	equ	0xFD8
  1511                           
  1512 ;; *************** function _tlc_sweep_set *****************
  1513 ;; Defined at:
  1514 ;;		line 273 in file "tlc5940.c"
  1515 ;; Parameters:    Size  Location     Type
  1516 ;;  tlc_servo_nu    1    wreg     unsigned char 
  1517 ;;  value           2   14[COMRAM] int 
  1518 ;; Auto vars:     Size  Location     Type
  1519 ;;  tlc_servo_nu    1   16[COMRAM] unsigned char 
  1520 ;; Return value:  Size  Location     Type
  1521 ;;		None               void
  1522 ;; Registers used:
  1523 ;;		wreg, fsr2l, fsr2h, status,2, status,0, prodl, prodh
  1524 ;; Tracked objects:
  1525 ;;		On entry : 0/0
  1526 ;;		On exit  : 0/0
  1527 ;;		Unchanged: 0/0
  1528 ;; Data sizes:     COMRAM   BANK0   BANK1   BANK2   BANK3   BANK4   BANK5
  1529 ;;      Params:         2       0       0       0       0       0       0
  1530 ;;      Locals:         1       0       0       0       0       0       0
  1531 ;;      Temps:          0       0       0       0       0       0       0
  1532 ;;      Totals:         3       0       0       0       0       0       0
  1533 ;;Total ram usage:        3 bytes
  1534 ;; Hardware stack levels used:    1
  1535 ;; Hardware stack levels required when called:    1
  1536 ;; This function calls:
  1537 ;;		Nothing
  1538 ;; This function is called by:
  1539 ;;		_main
  1540 ;; This function uses a non-reentrant model
  1541 ;;
  1542                           
  1543                           	psect	text5
  1544  0007C8                     __ptext5:
  1545                           	opt stack 0
  1546  0007C8                     _tlc_sweep_set:
  1547                           	opt stack 29
  1548                           
  1549                           ;incstack = 0
  1550                           ;tlc_sweep_set@tlc_servo_number stored from wreg
  1551  0007C8  6E33               	movwf	tlc_sweep_set@tlc_servo_number,c
  1552                           
  1553                           ;tlc5940.c: 275: if(value == -1 || value < -1 || value > 180)
  1554  0007CA  2831               	incf	tlc_sweep_set@value,w,c
  1555  0007CC  B4D8               	btfsc	status,2,c
  1556  0007CE  2832               	incf	tlc_sweep_set@value+1,w,c
  1557  0007D0  B4D8               	btfsc	status,2,c
  1558  0007D2  D010               	goto	l886
  1559  0007D4  5032               	movf	tlc_sweep_set@value+1,w,c
  1560  0007D6  0A80               	xorlw	128
  1561  0007D8  0F81               	addlw	-127
  1562  0007DA  0EFF               	movlw	255
  1563  0007DC  B4D8               	btfsc	status,2,c
  1564  0007DE  5C31               	subwf	tlc_sweep_set@value,w,c
  1565  0007E0  A0D8               	btfss	status,0,c
  1566  0007E2  D008               	goto	l886
  1567  0007E4  5032               	movf	tlc_sweep_set@value+1,w,c
  1568  0007E6  0A80               	xorlw	128
  1569  0007E8  0F80               	addlw	-128
  1570  0007EA  0EB5               	movlw	181
  1571  0007EC  B4D8               	btfsc	status,2,c
  1572  0007EE  5C31               	subwf	tlc_sweep_set@value,w,c
  1573  0007F0  A0D8               	btfss	status,0,c
  1574  0007F2  D00A               	goto	l888
  1575  0007F4                     l886:
  1576                           
  1577                           ;tlc5940.c: 276: {
  1578                           ;tlc5940.c: 277: tlc_servo_temp[tlc_servo_number] = 0;
  1579  0007F4  5033               	movf	tlc_sweep_set@tlc_servo_number,w,c
  1580  0007F6  0D01               	mullw	1
  1581  0007F8  0E11               	movlw	low _tlc_servo_temp
  1582  0007FA  24F3               	addwf	prodl,w,c
  1583  0007FC  6ED9               	movwf	fsr2l,c
  1584  0007FE  0E00               	movlw	high _tlc_servo_temp
  1585  000800  20F4               	addwfc	prodh,w,c
  1586  000802  6EDA               	movwf	fsr2h,c
  1587  000804  0E00               	movlw	0
  1588  000806  D00A               	goto	L9
  1589  000808                     l888:
  1590                           
  1591                           ;tlc5940.c: 279: else
  1592                           ;tlc5940.c: 280: {
  1593                           ;tlc5940.c: 281: tlc_servo_temp[tlc_servo_number] = value + 55;
  1594  000808  5033               	movf	tlc_sweep_set@tlc_servo_number,w,c
  1595  00080A  0D01               	mullw	1
  1596  00080C  0E11               	movlw	low _tlc_servo_temp
  1597  00080E  24F3               	addwf	prodl,w,c
  1598  000810  6ED9               	movwf	fsr2l,c
  1599  000812  0E00               	movlw	high _tlc_servo_temp
  1600  000814  20F4               	addwfc	prodh,w,c
  1601  000816  6EDA               	movwf	fsr2h,c
  1602  000818  5031               	movf	tlc_sweep_set@value,w,c
  1603  00081A  0F37               	addlw	55
  1604  00081C                     L9:
  1605  00081C  6EDF               	movwf	indf2,c
  1606  00081E  0012               	return	
  1607  000820                     __end_of_tlc_sweep_set:
  1608                           	opt stack 0
  1609                           pclatu	equ	0xFFB
  1610                           pclath	equ	0xFFA
  1611                           tblptru	equ	0xFF8
  1612                           tblptrh	equ	0xFF7
  1613                           tblptrl	equ	0xFF6
  1614                           tablat	equ	0xFF5
  1615                           prodh	equ	0xFF4
  1616                           prodl	equ	0xFF3
  1617                           postinc0	equ	0xFEE
  1618                           fsr0h	equ	0xFEA
  1619                           fsr0l	equ	0xFE9
  1620                           wreg	equ	0xFE8
  1621                           indf1	equ	0xFE7
  1622                           fsr1h	equ	0xFE2
  1623                           fsr1l	equ	0xFE1
  1624                           indf2	equ	0xFDF
  1625                           fsr2h	equ	0xFDA
  1626                           fsr2l	equ	0xFD9
  1627                           status	equ	0xFD8
  1628                           
  1629 ;; *************** function _tlc_spi_init *****************
  1630 ;; Defined at:
  1631 ;;		line 25 in file "tlc5940.c"
  1632 ;; Parameters:    Size  Location     Type
  1633 ;;		None
  1634 ;; Auto vars:     Size  Location     Type
  1635 ;;		None
  1636 ;; Return value:  Size  Location     Type
  1637 ;;		None               void
  1638 ;; Registers used:
  1639 ;;		None
  1640 ;; Tracked objects:
  1641 ;;		On entry : 0/0
  1642 ;;		On exit  : 0/0
  1643 ;;		Unchanged: 0/0
  1644 ;; Data sizes:     COMRAM   BANK0   BANK1   BANK2   BANK3   BANK4   BANK5
  1645 ;;      Params:         0       0       0       0       0       0       0
  1646 ;;      Locals:         0       0       0       0       0       0       0
  1647 ;;      Temps:          0       0       0       0       0       0       0
  1648 ;;      Totals:         0       0       0       0       0       0       0
  1649 ;;Total ram usage:        0 bytes
  1650 ;; Hardware stack levels used:    1
  1651 ;; Hardware stack levels required when called:    1
  1652 ;; This function calls:
  1653 ;;		Nothing
  1654 ;; This function is called by:
  1655 ;;		_main
  1656 ;; This function uses a non-reentrant model
  1657 ;;
  1658                           
  1659                           	psect	text6
  1660  00088C                     __ptext6:
  1661                           	opt stack 0
  1662  00088C                     _tlc_spi_init:
  1663                           	opt stack 29
  1664                           
  1665                           ;tlc5940.c: 27: SSPSTATbits.SMP = 0;
  1666                           
  1667                           ;incstack = 0
  1668  00088C  9EC7               	bcf	4039,7,c	;volatile
  1669                           
  1670                           ;tlc5940.c: 28: SSPSTATbits.CKE = 1;
  1671  00088E  8CC7               	bsf	4039,6,c	;volatile
  1672                           
  1673                           ;tlc5940.c: 29: SSPCON1bits.CKP = 0;
  1674  000890  98C6               	bcf	4038,4,c	;volatile
  1675                           
  1676                           ;tlc5940.c: 30: SSPCON1bits.SSPM0 = 0;
  1677  000892  90C6               	bcf	4038,0,c	;volatile
  1678                           
  1679                           ;tlc5940.c: 31: SSPCON1bits.SSPM1 = 0;
  1680  000894  92C6               	bcf	4038,1,c	;volatile
  1681                           
  1682                           ;tlc5940.c: 32: SSPCON1bits.SSPM2 = 0;
  1683  000896  94C6               	bcf	4038,2,c	;volatile
  1684                           
  1685                           ;tlc5940.c: 33: SSPCON1bits.SSPM3 = 0;
  1686  000898  96C6               	bcf	4038,3,c	;volatile
  1687                           
  1688                           ;tlc5940.c: 34: SSPCON1bits.SSPEN = 1;
  1689  00089A  8AC6               	bsf	4038,5,c	;volatile
  1690                           
  1691                           ;tlc5940.c: 36: TRISCbits.RC5 = 0;
  1692  00089C  9A94               	bcf	3988,5,c	;volatile
  1693                           
  1694                           ;tlc5940.c: 37: TRISCbits.RC3 = 0;
  1695  00089E  9694               	bcf	3988,3,c	;volatile
  1696  0008A0  0012               	return	
  1697  0008A2                     __end_of_tlc_spi_init:
  1698                           	opt stack 0
  1699                           pclatu	equ	0xFFB
  1700                           pclath	equ	0xFFA
  1701                           tblptru	equ	0xFF8
  1702                           tblptrh	equ	0xFF7
  1703                           tblptrl	equ	0xFF6
  1704                           tablat	equ	0xFF5
  1705                           prodh	equ	0xFF4
  1706                           prodl	equ	0xFF3
  1707                           postinc0	equ	0xFEE
  1708                           fsr0h	equ	0xFEA
  1709                           fsr0l	equ	0xFE9
  1710                           wreg	equ	0xFE8
  1711                           indf1	equ	0xFE7
  1712                           fsr1h	equ	0xFE2
  1713                           fsr1l	equ	0xFE1
  1714                           indf2	equ	0xFDF
  1715                           fsr2h	equ	0xFDA
  1716                           fsr2l	equ	0xFD9
  1717                           status	equ	0xFD8
  1718                           
  1719 ;; *************** function _tlc_set *****************
  1720 ;; Defined at:
  1721 ;;		line 197 in file "tlc5940.c"
  1722 ;; Parameters:    Size  Location     Type
  1723 ;;  tlc_servo_nu    1    wreg     unsigned char 
  1724 ;;  value           2   14[COMRAM] int 
  1725 ;; Auto vars:     Size  Location     Type
  1726 ;;  tlc_servo_nu    1   16[COMRAM] unsigned char 
  1727 ;; Return value:  Size  Location     Type
  1728 ;;		None               void
  1729 ;; Registers used:
  1730 ;;		wreg, fsr2l, fsr2h, status,2, status,0, prodl, prodh
  1731 ;; Tracked objects:
  1732 ;;		On entry : 0/0
  1733 ;;		On exit  : 0/0
  1734 ;;		Unchanged: 0/0
  1735 ;; Data sizes:     COMRAM   BANK0   BANK1   BANK2   BANK3   BANK4   BANK5
  1736 ;;      Params:         2       0       0       0       0       0       0
  1737 ;;      Locals:         1       0       0       0       0       0       0
  1738 ;;      Temps:          0       0       0       0       0       0       0
  1739 ;;      Totals:         3       0       0       0       0       0       0
  1740 ;;Total ram usage:        3 bytes
  1741 ;; Hardware stack levels used:    1
  1742 ;; Hardware stack levels required when called:    1
  1743 ;; This function calls:
  1744 ;;		Nothing
  1745 ;; This function is called by:
  1746 ;;		_main
  1747 ;; This function uses a non-reentrant model
  1748 ;;
  1749                           
  1750                           	psect	text7
  1751  000746                     __ptext7:
  1752                           	opt stack 0
  1753  000746                     _tlc_set:
  1754                           	opt stack 29
  1755                           
  1756                           ;incstack = 0
  1757                           ;tlc_set@tlc_servo_number stored from wreg
  1758  000746  6E33               	movwf	tlc_set@tlc_servo_number,c
  1759                           
  1760                           ;tlc5940.c: 199: if(value == -1 || value < -1 || value > 180)
  1761  000748  2831               	incf	tlc_set@value,w,c
  1762  00074A  B4D8               	btfsc	status,2,c
  1763  00074C  2832               	incf	tlc_set@value+1,w,c
  1764  00074E  B4D8               	btfsc	status,2,c
  1765  000750  D010               	goto	l842
  1766  000752  5032               	movf	tlc_set@value+1,w,c
  1767  000754  0A80               	xorlw	128
  1768  000756  0F81               	addlw	-127
  1769  000758  0EFF               	movlw	255
  1770  00075A  B4D8               	btfsc	status,2,c
  1771  00075C  5C31               	subwf	tlc_set@value,w,c
  1772  00075E  A0D8               	btfss	status,0,c
  1773  000760  D008               	goto	l842
  1774  000762  5032               	movf	tlc_set@value+1,w,c
  1775  000764  0A80               	xorlw	128
  1776  000766  0F80               	addlw	-128
  1777  000768  0EB5               	movlw	181
  1778  00076A  B4D8               	btfsc	status,2,c
  1779  00076C  5C31               	subwf	tlc_set@value,w,c
  1780  00076E  A0D8               	btfss	status,0,c
  1781  000770  D014               	goto	l844
  1782  000772                     l842:
  1783                           
  1784                           ;tlc5940.c: 200: {
  1785                           ;tlc5940.c: 201: tlc_servo[tlc_servo_number] = 0;
  1786  000772  5033               	movf	tlc_set@tlc_servo_number,w,c
  1787  000774  0D01               	mullw	1
  1788  000776  0E01               	movlw	low _tlc_servo
  1789  000778  24F3               	addwf	prodl,w,c
  1790  00077A  6ED9               	movwf	fsr2l,c
  1791  00077C  0E00               	movlw	high _tlc_servo
  1792  00077E  20F4               	addwfc	prodh,w,c
  1793  000780  6EDA               	movwf	fsr2h,c
  1794  000782  0E00               	movlw	0
  1795  000784  6EDF               	movwf	indf2,c
  1796                           
  1797                           ;tlc5940.c: 202: tlc_servo_temp[tlc_servo_number] = 0;
  1798  000786  5033               	movf	tlc_set@tlc_servo_number,w,c
  1799  000788  0D01               	mullw	1
  1800  00078A  0E11               	movlw	low _tlc_servo_temp
  1801  00078C  24F3               	addwf	prodl,w,c
  1802  00078E  6ED9               	movwf	fsr2l,c
  1803  000790  0E00               	movlw	high _tlc_servo_temp
  1804  000792  20F4               	addwfc	prodh,w,c
  1805  000794  6EDA               	movwf	fsr2h,c
  1806  000796  0E00               	movlw	0
  1807  000798  D015               	goto	L10
  1808  00079A                     l844:
  1809                           
  1810                           ;tlc5940.c: 204: else
  1811                           ;tlc5940.c: 205: {
  1812                           ;tlc5940.c: 206: tlc_servo[tlc_servo_number] = value + 55;
  1813  00079A  5033               	movf	tlc_set@tlc_servo_number,w,c
  1814  00079C  0D01               	mullw	1
  1815  00079E  0E01               	movlw	low _tlc_servo
  1816  0007A0  24F3               	addwf	prodl,w,c
  1817  0007A2  6ED9               	movwf	fsr2l,c
  1818  0007A4  0E00               	movlw	high _tlc_servo
  1819  0007A6  20F4               	addwfc	prodh,w,c
  1820  0007A8  6EDA               	movwf	fsr2h,c
  1821  0007AA  5031               	movf	tlc_set@value,w,c
  1822  0007AC  0F37               	addlw	55
  1823  0007AE  6EDF               	movwf	indf2,c
  1824                           
  1825                           ;tlc5940.c: 207: tlc_servo_temp[tlc_servo_number] = value + 55;
  1826  0007B0  5033               	movf	tlc_set@tlc_servo_number,w,c
  1827  0007B2  0D01               	mullw	1
  1828  0007B4  0E11               	movlw	low _tlc_servo_temp
  1829  0007B6  24F3               	addwf	prodl,w,c
  1830  0007B8  6ED9               	movwf	fsr2l,c
  1831  0007BA  0E00               	movlw	high _tlc_servo_temp
  1832  0007BC  20F4               	addwfc	prodh,w,c
  1833  0007BE  6EDA               	movwf	fsr2h,c
  1834  0007C0  5031               	movf	tlc_set@value,w,c
  1835  0007C2  0F37               	addlw	55
  1836  0007C4                     L10:
  1837  0007C4  6EDF               	movwf	indf2,c
  1838  0007C6  0012               	return	
  1839  0007C8                     __end_of_tlc_set:
  1840                           	opt stack 0
  1841                           pclatu	equ	0xFFB
  1842                           pclath	equ	0xFFA
  1843                           tblptru	equ	0xFF8
  1844                           tblptrh	equ	0xFF7
  1845                           tblptrl	equ	0xFF6
  1846                           tablat	equ	0xFF5
  1847                           prodh	equ	0xFF4
  1848                           prodl	equ	0xFF3
  1849                           postinc0	equ	0xFEE
  1850                           fsr0h	equ	0xFEA
  1851                           fsr0l	equ	0xFE9
  1852                           wreg	equ	0xFE8
  1853                           indf1	equ	0xFE7
  1854                           fsr1h	equ	0xFE2
  1855                           fsr1l	equ	0xFE1
  1856                           indf2	equ	0xFDF
  1857                           fsr2h	equ	0xFDA
  1858                           fsr2l	equ	0xFD9
  1859                           status	equ	0xFD8
  1860                           
  1861 ;; *************** function _tlc_pwm_init *****************
  1862 ;; Defined at:
  1863 ;;		line 46 in file "tlc5940.c"
  1864 ;; Parameters:    Size  Location     Type
  1865 ;;		None
  1866 ;; Auto vars:     Size  Location     Type
  1867 ;;		None
  1868 ;; Return value:  Size  Location     Type
  1869 ;;		None               void
  1870 ;; Registers used:
  1871 ;;		wreg, status,2
  1872 ;; Tracked objects:
  1873 ;;		On entry : 0/0
  1874 ;;		On exit  : 0/0
  1875 ;;		Unchanged: 0/0
  1876 ;; Data sizes:     COMRAM   BANK0   BANK1   BANK2   BANK3   BANK4   BANK5
  1877 ;;      Params:         0       0       0       0       0       0       0
  1878 ;;      Locals:         0       0       0       0       0       0       0
  1879 ;;      Temps:          0       0       0       0       0       0       0
  1880 ;;      Totals:         0       0       0       0       0       0       0
  1881 ;;Total ram usage:        0 bytes
  1882 ;; Hardware stack levels used:    1
  1883 ;; Hardware stack levels required when called:    1
  1884 ;; This function calls:
  1885 ;;		Nothing
  1886 ;; This function is called by:
  1887 ;;		_main
  1888 ;; This function uses a non-reentrant model
  1889 ;;
  1890                           
  1891                           	psect	text8
  1892  000870                     __ptext8:
  1893                           	opt stack 0
  1894  000870                     _tlc_pwm_init:
  1895                           	opt stack 29
  1896                           
  1897                           ;tlc5940.c: 49: PR2 = 0b00000100;
  1898                           
  1899                           ;incstack = 0
  1900  000870  0E04               	movlw	4
  1901  000872  6ECB               	movwf	4043,c	;volatile
  1902                           
  1903                           ;tlc5940.c: 50: T2CON = 0b01111101;
  1904  000874  0E7D               	movlw	125
  1905  000876  6ECA               	movwf	4042,c	;volatile
  1906                           
  1907                           ;tlc5940.c: 51: CCPR1L = 0b00000010;
  1908  000878  0E02               	movlw	2
  1909  00087A  6EBE               	movwf	4030,c	;volatile
  1910                           
  1911                           ;tlc5940.c: 52: CCP1CON = 0b00101100;
  1912  00087C  0E2C               	movlw	44
  1913  00087E  6EBD               	movwf	4029,c	;volatile
  1914                           
  1915                           ;tlc5940.c: 53: TRISCbits.RC2 = 0;
  1916  000880  9494               	bcf	3988,2,c	;volatile
  1917                           
  1918                           ;tlc5940.c: 55: PIE1bits.TMR2IE = 1;
  1919  000882  829D               	bsf	3997,1,c	;volatile
  1920                           
  1921                           ;tlc5940.c: 56: INTCONbits.PEIE = 1;
  1922  000884  8CF2               	bsf	intcon,6,c	;volatile
  1923                           
  1924                           ;tlc5940.c: 57: INTCONbits.GIE = 1;
  1925  000886  8EF2               	bsf	intcon,7,c	;volatile
  1926                           
  1927                           ;tlc5940.c: 59: T2CONbits.TMR2ON = 0;
  1928  000888  94CA               	bcf	4042,2,c	;volatile
  1929  00088A  0012               	return	
  1930  00088C                     __end_of_tlc_pwm_init:
  1931                           	opt stack 0
  1932                           pclatu	equ	0xFFB
  1933                           pclath	equ	0xFFA
  1934                           tblptru	equ	0xFF8
  1935                           tblptrh	equ	0xFF7
  1936                           tblptrl	equ	0xFF6
  1937                           tablat	equ	0xFF5
  1938                           prodh	equ	0xFF4
  1939                           prodl	equ	0xFF3
  1940                           intcon	equ	0xFF2
  1941                           postinc0	equ	0xFEE
  1942                           fsr0h	equ	0xFEA
  1943                           fsr0l	equ	0xFE9
  1944                           wreg	equ	0xFE8
  1945                           indf1	equ	0xFE7
  1946                           fsr1h	equ	0xFE2
  1947                           fsr1l	equ	0xFE1
  1948                           indf2	equ	0xFDF
  1949                           fsr2h	equ	0xFDA
  1950                           fsr2l	equ	0xFD9
  1951                           status	equ	0xFD8
  1952                           
  1953 ;; *************** function _tlc_init *****************
  1954 ;; Defined at:
  1955 ;;		line 72 in file "tlc5940.c"
  1956 ;; Parameters:    Size  Location     Type
  1957 ;;		None
  1958 ;; Auto vars:     Size  Location     Type
  1959 ;;  i               1   22[COMRAM] unsigned char 
  1960 ;;  i               2   23[COMRAM] int 
  1961 ;;  i               1   20[COMRAM] unsigned char 
  1962 ;;  counter         1   21[COMRAM] unsigned char 
  1963 ;; Return value:  Size  Location     Type
  1964 ;;		None               void
  1965 ;; Registers used:
  1966 ;;		wreg, fsr1l, fsr1h, fsr2l, fsr2h, status,2, status,0, cstack
  1967 ;; Tracked objects:
  1968 ;;		On entry : 0/0
  1969 ;;		On exit  : 0/0
  1970 ;;		Unchanged: 0/0
  1971 ;; Data sizes:     COMRAM   BANK0   BANK1   BANK2   BANK3   BANK4   BANK5
  1972 ;;      Params:         0       0       0       0       0       0       0
  1973 ;;      Locals:         5       0       0       0       0       0       0
  1974 ;;      Temps:          5       0       0       0       0       0       0
  1975 ;;      Totals:        10       0       0       0       0       0       0
  1976 ;;Total ram usage:       10 bytes
  1977 ;; Hardware stack levels used:    1
  1978 ;; Hardware stack levels required when called:    2
  1979 ;; This function calls:
  1980 ;;		_tlc_spi_send_data
  1981 ;; This function is called by:
  1982 ;;		_main
  1983 ;; This function uses a non-reentrant model
  1984 ;;
  1985                           
  1986                           	psect	text9
  1987  0001FA                     __ptext9:
  1988                           	opt stack 0
  1989  0001FA                     _tlc_init:
  1990                           	opt stack 28
  1991                           
  1992                           ;tlc5940.c: 75: tlc_interrupt_counter = 0;
  1993                           
  1994                           ;incstack = 0
  1995  0001FA  0E00               	movlw	0
  1996  0001FC  6E22               	movwf	_tlc_interrupt_counter+1,c
  1997  0001FE  0E00               	movlw	0
  1998  000200  6E21               	movwf	_tlc_interrupt_counter,c
  1999                           
  2000                           ;tlc5940.c: 78: TRISDbits.RD0 = 0;
  2001  000202  9095               	bcf	3989,0,c	;volatile
  2002                           
  2003                           ;tlc5940.c: 79: TRISDbits.RD1 = 0;
  2004  000204  9295               	bcf	3989,1,c	;volatile
  2005                           
  2006                           ;tlc5940.c: 80: TRISDbits.RD2 = 0;
  2007  000206  9495               	bcf	3989,2,c	;volatile
  2008                           
  2009                           ;tlc5940.c: 83: LATDbits.LD1 = 1;
  2010  000208  828C               	bsf	3980,1,c	;volatile
  2011                           
  2012                           ;tlc5940.c: 84: LATDbits.LD0 = 0;
  2013  00020A  908C               	bcf	3980,0,c	;volatile
  2014                           
  2015                           ;tlc5940.c: 85: _delay((unsigned long)((2)*(8000000/4000.0)));
  2016  00020C  0E06               	movlw	6
  2017  00020E  6E32               	movwf	??_tlc_init& (0+255),c
  2018  000210  0E30               	movlw	48
  2019  000212                     u387:
  2020  000212  2EE8               	decfsz	wreg,f,c
  2021  000214  D7FE               	goto	u387
  2022  000216  2E32               	decfsz	??_tlc_init& (0+255),f,c
  2023  000218  D7FC               	goto	u387
  2024  00021A  D000               	nop2	
  2025                           
  2026                           ;tlc5940.c: 88: for(char i = 0; i < 12; i++)
  2027  00021C  0E00               	movlw	0
  2028  00021E  6E37               	movwf	tlc_init@i,c
  2029  000220  D004               	goto	L13
  2030  000222                     l770:
  2031                           
  2032                           ;tlc5940.c: 89: {
  2033                           ;tlc5940.c: 90: tlc_spi_send_data(0b11111111);
  2034  000222  0EFF               	movlw	255
  2035  000224  EC5A  F004         	call	_tlc_spi_send_data
  2036  000228  2A37               	incf	tlc_init@i,f,c
  2037  00022A                     L13:
  2038  00022A  0E0B               	movlw	11
  2039  00022C  6437               	cpfsgt	tlc_init@i,c
  2040  00022E  D7F9               	goto	l770
  2041                           
  2042                           ;tlc5940.c: 91: }
  2043                           ;tlc5940.c: 94: _delay((unsigned long)((1)*(8000000/4000000.0)));
  2044  000230  D000               	nop2		;2 cycle nop
  2045                           
  2046                           ;tlc5940.c: 95: LATDbits.LD0 = 1;
  2047  000232  808C               	bsf	3980,0,c	;volatile
  2048                           
  2049                           ;tlc5940.c: 96: _delay((unsigned long)((1)*(8000000/4000000.0)));
  2050  000234  D000               	nop2		;2 cycle nop
  2051                           
  2052                           ;tlc5940.c: 97: LATDbits.LD0 = 0;
  2053  000236  908C               	bcf	3980,0,c	;volatile
  2054                           
  2055                           ;tlc5940.c: 98: _delay((unsigned long)((1)*(8000000/4000000.0)));
  2056  000238  D000               	nop2		;2 cycle nop
  2057                           
  2058                           ;tlc5940.c: 102: _delay((unsigned long)((2)*(8000000/4000.0)));
  2059  00023A  0E06               	movlw	6
  2060  00023C  6E32               	movwf	??_tlc_init& (0+255),c
  2061  00023E  0E30               	movlw	48
  2062  000240                     u397:
  2063  000240  2EE8               	decfsz	wreg,f,c
  2064  000242  D7FE               	goto	u397
  2065  000244  2E32               	decfsz	??_tlc_init& (0+255),f,c
  2066  000246  D7FC               	goto	u397
  2067  000248  D000               	nop2	
  2068                           
  2069                           ;tlc5940.c: 104: T2CONbits.TMR2ON = 0;
  2070  00024A  94CA               	bcf	4042,2,c	;volatile
  2071                           
  2072                           ;tlc5940.c: 105: LATDbits.LD1 = 0;
  2073  00024C  928C               	bcf	3980,1,c	;volatile
  2074                           
  2075                           ;tlc5940.c: 106: LATDbits.LD0 = 0;
  2076  00024E  908C               	bcf	3980,0,c	;volatile
  2077                           
  2078                           ;tlc5940.c: 107: LATDbits.LD2 = 0;
  2079  000250  948C               	bcf	3980,2,c	;volatile
  2080                           
  2081                           ;tlc5940.c: 110: for(int i = 0; i < 16; i++)
  2082  000252  0E00               	movlw	0
  2083  000254  6E3B               	movwf	tlc_init@i_603+1,c
  2084  000256  0E00               	movlw	0
  2085  000258  6E3A               	movwf	tlc_init@i_603,c
  2086  00025A  503B               	movf	tlc_init@i_603+1,w,c
  2087  00025C  0A80               	xorlw	128
  2088  00025E  0F80               	addlw	-128
  2089  000260  0E10               	movlw	16
  2090  000262  B4D8               	btfsc	status,2,c
  2091  000264  5C3A               	subwf	tlc_init@i_603,w,c
  2092  000266  B0D8               	btfsc	status,0,c
  2093  000268  D022               	goto	l802
  2094                           
  2095                           ;tlc5940.c: 111: {
  2096                           ;tlc5940.c: 112: if(tlc_servo[i] != 0)
  2097  00026A  0E01               	movlw	low _tlc_servo
  2098  00026C  243A               	addwf	tlc_init@i_603,w,c
  2099  00026E  6ED9               	movwf	fsr2l,c
  2100  000270  0E00               	movlw	high _tlc_servo
  2101  000272  203B               	addwfc	tlc_init@i_603+1,w,c
  2102  000274  6EDA               	movwf	fsr2h,c
  2103  000276  50DF               	movf	indf2,w,c
  2104  000278  B4D8               	btfsc	status,2,c
  2105  00027A  D008               	goto	l796
  2106                           
  2107                           ;tlc5940.c: 113: {
  2108                           ;tlc5940.c: 114: tlc_servo[i] = 0;
  2109  00027C  0E01               	movlw	low _tlc_servo
  2110  00027E  243A               	addwf	tlc_init@i_603,w,c
  2111  000280  6ED9               	movwf	fsr2l,c
  2112  000282  0E00               	movlw	high _tlc_servo
  2113  000284  203B               	addwfc	tlc_init@i_603+1,w,c
  2114  000286  6EDA               	movwf	fsr2h,c
  2115  000288  0E00               	movlw	0
  2116  00028A  6EDF               	movwf	indf2,c
  2117  00028C                     l796:
  2118                           
  2119                           ;tlc5940.c: 115: }
  2120                           ;tlc5940.c: 116: tlc_servo_temp[i] = tlc_servo[i];
  2121  00028C  0E01               	movlw	low _tlc_servo
  2122  00028E  243A               	addwf	tlc_init@i_603,w,c
  2123  000290  6ED9               	movwf	fsr2l,c
  2124  000292  0E00               	movlw	high _tlc_servo
  2125  000294  203B               	addwfc	tlc_init@i_603+1,w,c
  2126  000296  6EDA               	movwf	fsr2h,c
  2127  000298  0E11               	movlw	low _tlc_servo_temp
  2128  00029A  243A               	addwf	tlc_init@i_603,w,c
  2129  00029C  6EE1               	movwf	fsr1l,c
  2130  00029E  0E00               	movlw	high _tlc_servo_temp
  2131  0002A0  203B               	addwfc	tlc_init@i_603+1,w,c
  2132  0002A2  6EE2               	movwf	fsr1h,c
  2133  0002A4  CFDF FFE7          	movff	indf2,indf1
  2134  0002A8  4A3A               	infsnz	tlc_init@i_603,f,c
  2135  0002AA  2A3B               	incf	tlc_init@i_603+1,f,c
  2136  0002AC  D7D6               	goto	L11
  2137  0002AE                     l802:
  2138                           
  2139                           ;tlc5940.c: 117: }
  2140                           ;tlc5940.c: 126: char counter = 0;
  2141  0002AE  0E00               	movlw	0
  2142  0002B0  6E38               	movwf	tlc_init@counter,c
  2143                           
  2144                           ;tlc5940.c: 127: for(char i = 15; i > 7; i--)
  2145  0002B2  0E0F               	movlw	15
  2146  0002B4  6E39               	movwf	tlc_init@i_605,c
  2147  0002B6  0E08               	movlw	8
  2148  0002B8  5C39               	subwf	tlc_init@i_605,w,c
  2149  0002BA  A0D8               	btfss	status,0,c
  2150  0002BC  D052               	goto	l52
  2151                           
  2152                           ;tlc5940.c: 128: {
  2153                           ;tlc5940.c: 129: tlc_spi_send_data(tlc_servo[i - counter]>>4);
  2154  0002BE  5038               	movf	tlc_init@counter,w,c
  2155  0002C0  6E32               	movwf	??_tlc_init& (0+255),c
  2156  0002C2  6A33               	clrf	(??_tlc_init+1)& (0+255),c
  2157  0002C4  1E32               	comf	??_tlc_init,f,c
  2158  0002C6  1E33               	comf	??_tlc_init+1,f,c
  2159  0002C8  4A32               	infsnz	??_tlc_init,f,c
  2160  0002CA  2A33               	incf	??_tlc_init+1,f,c
  2161  0002CC  5039               	movf	tlc_init@i_605,w,c
  2162  0002CE  6E34               	movwf	(??_tlc_init+2)& (0+255),c
  2163  0002D0  6A35               	clrf	(??_tlc_init+3)& (0+255),c
  2164  0002D2  5032               	movf	??_tlc_init,w,c
  2165  0002D4  2634               	addwf	??_tlc_init+2,f,c
  2166  0002D6  5033               	movf	??_tlc_init+1,w,c
  2167  0002D8  2235               	addwfc	??_tlc_init+3,f,c
  2168  0002DA  0E01               	movlw	low _tlc_servo
  2169  0002DC  2434               	addwf	??_tlc_init+2,w,c
  2170  0002DE  6ED9               	movwf	fsr2l,c
  2171  0002E0  0E00               	movlw	high _tlc_servo
  2172  0002E2  2035               	addwfc	??_tlc_init+3,w,c
  2173  0002E4  6EDA               	movwf	fsr2h,c
  2174  0002E6  50DF               	movf	indf2,w,c
  2175  0002E8  6E36               	movwf	(??_tlc_init+4)& (0+255),c
  2176  0002EA  3836               	swapf	??_tlc_init+4,w,c
  2177  0002EC  0B0F               	andlw	15
  2178  0002EE  EC5A  F004         	call	_tlc_spi_send_data
  2179                           
  2180                           ;tlc5940.c: 130: tlc_spi_send_data(tlc_servo[i - counter]<<4);
  2181  0002F2  5038               	movf	tlc_init@counter,w,c
  2182  0002F4  6E32               	movwf	??_tlc_init& (0+255),c
  2183  0002F6  6A33               	clrf	(??_tlc_init+1)& (0+255),c
  2184  0002F8  1E32               	comf	??_tlc_init,f,c
  2185  0002FA  1E33               	comf	??_tlc_init+1,f,c
  2186  0002FC  4A32               	infsnz	??_tlc_init,f,c
  2187  0002FE  2A33               	incf	??_tlc_init+1,f,c
  2188  000300  5039               	movf	tlc_init@i_605,w,c
  2189  000302  6E34               	movwf	(??_tlc_init+2)& (0+255),c
  2190  000304  6A35               	clrf	(??_tlc_init+3)& (0+255),c
  2191  000306  5032               	movf	??_tlc_init,w,c
  2192  000308  2634               	addwf	??_tlc_init+2,f,c
  2193  00030A  5033               	movf	??_tlc_init+1,w,c
  2194  00030C  2235               	addwfc	??_tlc_init+3,f,c
  2195  00030E  0E01               	movlw	low _tlc_servo
  2196  000310  2434               	addwf	??_tlc_init+2,w,c
  2197  000312  6ED9               	movwf	fsr2l,c
  2198  000314  0E00               	movlw	high _tlc_servo
  2199  000316  2035               	addwfc	??_tlc_init+3,w,c
  2200  000318  6EDA               	movwf	fsr2h,c
  2201  00031A  50DF               	movf	indf2,w,c
  2202  00031C  6E36               	movwf	(??_tlc_init+4)& (0+255),c
  2203  00031E  3836               	swapf	??_tlc_init+4,w,c
  2204  000320  0BF0               	andlw	240
  2205  000322  EC5A  F004         	call	_tlc_spi_send_data
  2206                           
  2207                           ;tlc5940.c: 131: tlc_spi_send_data(tlc_servo[i - (counter + 1)]);
  2208  000326  5038               	movf	tlc_init@counter,w,c
  2209  000328  6E32               	movwf	??_tlc_init& (0+255),c
  2210  00032A  6A33               	clrf	(??_tlc_init+1)& (0+255),c
  2211  00032C  0E01               	movlw	1
  2212  00032E  2632               	addwf	??_tlc_init,f,c
  2213  000330  0E00               	movlw	0
  2214  000332  2233               	addwfc	??_tlc_init+1,f,c
  2215  000334  1E32               	comf	??_tlc_init,f,c
  2216  000336  1E33               	comf	??_tlc_init+1,f,c
  2217  000338  4A32               	infsnz	??_tlc_init,f,c
  2218  00033A  2A33               	incf	??_tlc_init+1,f,c
  2219  00033C  5039               	movf	tlc_init@i_605,w,c
  2220  00033E  6E34               	movwf	(??_tlc_init+2)& (0+255),c
  2221  000340  6A35               	clrf	(??_tlc_init+3)& (0+255),c
  2222  000342  5032               	movf	??_tlc_init,w,c
  2223  000344  2634               	addwf	??_tlc_init+2,f,c
  2224  000346  5033               	movf	??_tlc_init+1,w,c
  2225  000348  2235               	addwfc	??_tlc_init+3,f,c
  2226  00034A  0E01               	movlw	low _tlc_servo
  2227  00034C  2434               	addwf	??_tlc_init+2,w,c
  2228  00034E  6ED9               	movwf	fsr2l,c
  2229  000350  0E00               	movlw	high _tlc_servo
  2230  000352  2035               	addwfc	??_tlc_init+3,w,c
  2231  000354  6EDA               	movwf	fsr2h,c
  2232  000356  50DF               	movf	indf2,w,c
  2233  000358  EC5A  F004         	call	_tlc_spi_send_data
  2234                           
  2235                           ;tlc5940.c: 132: counter++;
  2236  00035C  2A38               	incf	tlc_init@counter,f,c
  2237  00035E  0639               	decf	tlc_init@i_605,f,c
  2238  000360  D7AA               	goto	L12
  2239  000362                     l52:
  2240                           
  2241                           ;tlc5940.c: 133: }
  2242                           ;tlc5940.c: 136: _delay((unsigned long)((3)*(8000000/4000000.0)));
  2243  000362  D000               	nop2		;2 cycle nop
  2244  000364  D000               	nop2		;2 cycle nop
  2245  000366  D000               	nop2		;2 cycle nop
  2246                           
  2247                           ;tlc5940.c: 137: LATDbits.LD0 = 1;
  2248  000368  808C               	bsf	3980,0,c	;volatile
  2249                           
  2250                           ;tlc5940.c: 138: _delay((unsigned long)((1)*(8000000/4000000.0)));
  2251  00036A  D000               	nop2		;2 cycle nop
  2252                           
  2253                           ;tlc5940.c: 139: LATDbits.LD0 = 0;
  2254  00036C  908C               	bcf	3980,0,c	;volatile
  2255                           
  2256                           ;tlc5940.c: 140: _delay((unsigned long)((1)*(8000000/4000000.0)));
  2257  00036E  D000               	nop2		;2 cycle nop
  2258                           
  2259                           ;tlc5940.c: 142: tlc_spi_send_data(0b10000000);
  2260  000370  0E80               	movlw	128
  2261  000372  EC5A  F004         	call	_tlc_spi_send_data
  2262                           
  2263                           ;tlc5940.c: 145: T2CONbits.TMR2ON = 1;
  2264  000376  84CA               	bsf	4042,2,c	;volatile
  2265  000378  0012               	return	
  2266  00037A                     __end_of_tlc_init:
  2267                           	opt stack 0
  2268                           pclatu	equ	0xFFB
  2269                           pclath	equ	0xFFA
  2270                           tblptru	equ	0xFF8
  2271                           tblptrh	equ	0xFF7
  2272                           tblptrl	equ	0xFF6
  2273                           tablat	equ	0xFF5
  2274                           prodh	equ	0xFF4
  2275                           prodl	equ	0xFF3
  2276                           intcon	equ	0xFF2
  2277                           postinc0	equ	0xFEE
  2278                           fsr0h	equ	0xFEA
  2279                           fsr0l	equ	0xFE9
  2280                           wreg	equ	0xFE8
  2281                           indf1	equ	0xFE7
  2282                           fsr1h	equ	0xFE2
  2283                           fsr1l	equ	0xFE1
  2284                           indf2	equ	0xFDF
  2285                           fsr2h	equ	0xFDA
  2286                           fsr2l	equ	0xFD9
  2287                           status	equ	0xFD8
  2288                           
  2289 ;; *************** function _tlc_spi_send_data *****************
  2290 ;; Defined at:
  2291 ;;		line 40 in file "tlc5940.c"
  2292 ;; Parameters:    Size  Location     Type
  2293 ;;  data            1    wreg     unsigned char 
  2294 ;; Auto vars:     Size  Location     Type
  2295 ;;  data            1   14[COMRAM] unsigned char 
  2296 ;; Return value:  Size  Location     Type
  2297 ;;		None               void
  2298 ;; Registers used:
  2299 ;;		wreg
  2300 ;; Tracked objects:
  2301 ;;		On entry : 0/0
  2302 ;;		On exit  : 0/0
  2303 ;;		Unchanged: 0/0
  2304 ;; Data sizes:     COMRAM   BANK0   BANK1   BANK2   BANK3   BANK4   BANK5
  2305 ;;      Params:         0       0       0       0       0       0       0
  2306 ;;      Locals:         1       0       0       0       0       0       0
  2307 ;;      Temps:          0       0       0       0       0       0       0
  2308 ;;      Totals:         1       0       0       0       0       0       0
  2309 ;;Total ram usage:        1 bytes
  2310 ;; Hardware stack levels used:    1
  2311 ;; Hardware stack levels required when called:    1
  2312 ;; This function calls:
  2313 ;;		Nothing
  2314 ;; This function is called by:
  2315 ;;		_tlc_init
  2316 ;;		_tlc_update
  2317 ;;		_tlc_write
  2318 ;;		_tlc_sweep_update
  2319 ;; This function uses a non-reentrant model
  2320 ;;
  2321                           
  2322                           	psect	text10
  2323  0008B4                     __ptext10:
  2324                           	opt stack 0
  2325  0008B4                     _tlc_spi_send_data:
  2326                           	opt stack 28
  2327                           
  2328                           ;incstack = 0
  2329                           ;tlc_spi_send_data@data stored from wreg
  2330  0008B4  6E31               	movwf	tlc_spi_send_data@data,c
  2331                           
  2332                           ;tlc5940.c: 42: SSPBUF = data;
  2333  0008B6  C031  FFC9         	movff	tlc_spi_send_data@data,4041	;volatile
  2334                           
  2335                           ;tlc5940.c: 43: _delay((unsigned long)((2)*(8000000/4000000.0)));
  2336  0008BA  D000               	nop2		;2 cycle nop
  2337  0008BC  D000               	nop2		;2 cycle nop
  2338  0008BE  0012               	return	
  2339  0008C0                     __end_of_tlc_spi_send_data:
  2340                           	opt stack 0
  2341                           pclatu	equ	0xFFB
  2342                           pclath	equ	0xFFA
  2343                           tblptru	equ	0xFF8
  2344                           tblptrh	equ	0xFF7
  2345                           tblptrl	equ	0xFF6
  2346                           tablat	equ	0xFF5
  2347                           prodh	equ	0xFF4
  2348                           prodl	equ	0xFF3
  2349                           intcon	equ	0xFF2
  2350                           postinc0	equ	0xFEE
  2351                           fsr0h	equ	0xFEA
  2352                           fsr0l	equ	0xFE9
  2353                           wreg	equ	0xFE8
  2354                           indf1	equ	0xFE7
  2355                           fsr1h	equ	0xFE2
  2356                           fsr1l	equ	0xFE1
  2357                           indf2	equ	0xFDF
  2358                           fsr2h	equ	0xFDA
  2359                           fsr2l	equ	0xFD9
  2360                           status	equ	0xFD8
  2361                           
  2362 ;; *************** function _delay_sec *****************
  2363 ;; Defined at:
  2364 ;;		line 24 in file "main.c"
  2365 ;; Parameters:    Size  Location     Type
  2366 ;;		None
  2367 ;; Auto vars:     Size  Location     Type
  2368 ;;  i               2   15[COMRAM] int 
  2369 ;; Return value:  Size  Location     Type
  2370 ;;		None               void
  2371 ;; Registers used:
  2372 ;;		wreg, status,2, status,0
  2373 ;; Tracked objects:
  2374 ;;		On entry : 0/0
  2375 ;;		On exit  : 0/0
  2376 ;;		Unchanged: 0/0
  2377 ;; Data sizes:     COMRAM   BANK0   BANK1   BANK2   BANK3   BANK4   BANK5
  2378 ;;      Params:         0       0       0       0       0       0       0
  2379 ;;      Locals:         2       0       0       0       0       0       0
  2380 ;;      Temps:          1       0       0       0       0       0       0
  2381 ;;      Totals:         3       0       0       0       0       0       0
  2382 ;;Total ram usage:        3 bytes
  2383 ;; Hardware stack levels used:    1
  2384 ;; Hardware stack levels required when called:    1
  2385 ;; This function calls:
  2386 ;;		Nothing
  2387 ;; This function is called by:
  2388 ;;		_main
  2389 ;; This function uses a non-reentrant model
  2390 ;;
  2391                           
  2392                           	psect	text11
  2393  000820                     __ptext11:
  2394                           	opt stack 0
  2395  000820                     _delay_sec:
  2396                           	opt stack 29
  2397                           
  2398                           ;main.c: 26: for(int i = 0; i < 50; i++)
  2399                           
  2400                           ;incstack = 0
  2401  000820  0E00               	movlw	0
  2402  000822  6E33               	movwf	delay_sec@i+1,c
  2403  000824  0E00               	movlw	0
  2404  000826  6E32               	movwf	delay_sec@i,c
  2405  000828  5033               	movf	delay_sec@i+1,w,c
  2406  00082A  0A80               	xorlw	128
  2407  00082C  0F80               	addlw	-128
  2408  00082E  0E32               	movlw	50
  2409  000830  B4D8               	btfsc	status,2,c
  2410  000832  5C32               	subwf	delay_sec@i,w,c
  2411  000834  B0D8               	btfsc	status,0,c
  2412  000836  D00B               	goto	l141
  2413                           
  2414                           ;main.c: 27: {
  2415                           ;main.c: 28: _delay((unsigned long)((10)*(8000000/4000.0)));
  2416  000838  0E1A               	movlw	26
  2417  00083A  6E31               	movwf	??_delay_sec& (0+255),c
  2418  00083C  0EF8               	movlw	248
  2419  00083E                     u407:
  2420  00083E  2EE8               	decfsz	wreg,f,c
  2421  000840  D7FE               	goto	u407
  2422  000842  2E31               	decfsz	??_delay_sec& (0+255),f,c
  2423  000844  D7FC               	goto	u407
  2424  000846  D000               	nop2	
  2425  000848  4A32               	infsnz	delay_sec@i,f,c
  2426  00084A  2A33               	incf	delay_sec@i+1,f,c
  2427  00084C  D7ED               	goto	L14
  2428  00084E                     l141:
  2429  00084E  0012               	return	
  2430  000850                     __end_of_delay_sec:
  2431                           	opt stack 0
  2432                           pclatu	equ	0xFFB
  2433                           pclath	equ	0xFFA
  2434                           tblptru	equ	0xFF8
  2435                           tblptrh	equ	0xFF7
  2436                           tblptrl	equ	0xFF6
  2437                           tablat	equ	0xFF5
  2438                           prodh	equ	0xFF4
  2439                           prodl	equ	0xFF3
  2440                           intcon	equ	0xFF2
  2441                           postinc0	equ	0xFEE
  2442                           fsr0h	equ	0xFEA
  2443                           fsr0l	equ	0xFE9
  2444                           wreg	equ	0xFE8
  2445                           indf1	equ	0xFE7
  2446                           fsr1h	equ	0xFE2
  2447                           fsr1l	equ	0xFE1
  2448                           indf2	equ	0xFDF
  2449                           fsr2h	equ	0xFDA
  2450                           fsr2l	equ	0xFD9
  2451                           status	equ	0xFD8
  2452                           
  2453 ;; *************** function _tlc_interrupt_blank *****************
  2454 ;; Defined at:
  2455 ;;		line 32 in file "main.c"
  2456 ;; Parameters:    Size  Location     Type
  2457 ;;		None
  2458 ;; Auto vars:     Size  Location     Type
  2459 ;;		None
  2460 ;; Return value:  Size  Location     Type
  2461 ;;		None               void
  2462 ;; Registers used:
  2463 ;;		wreg, status,2, status,0
  2464 ;; Tracked objects:
  2465 ;;		On entry : 0/0
  2466 ;;		On exit  : 0/0
  2467 ;;		Unchanged: 0/0
  2468 ;; Data sizes:     COMRAM   BANK0   BANK1   BANK2   BANK3   BANK4   BANK5
  2469 ;;      Params:         0       0       0       0       0       0       0
  2470 ;;      Locals:         0       0       0       0       0       0       0
  2471 ;;      Temps:         14       0       0       0       0       0       0
  2472 ;;      Totals:        14       0       0       0       0       0       0
  2473 ;;Total ram usage:       14 bytes
  2474 ;; Hardware stack levels used:    1
  2475 ;; This function calls:
  2476 ;;		Nothing
  2477 ;; This function is called by:
  2478 ;;		Interrupt level 2
  2479 ;; This function uses a non-reentrant model
  2480 ;;
  2481                           
  2482                           	psect	intcode
  2483  000008                     __pintcode:
  2484                           	opt stack 0
  2485  000008                     _tlc_interrupt_blank:
  2486                           	opt stack 28
  2487                           
  2488                           ;incstack = 0
  2489  000008  CFFA F023          	movff	pclath,??_tlc_interrupt_blank
  2490  00000C  CFFB F024          	movff	pclatu,??_tlc_interrupt_blank+1
  2491  000010  CFE9 F025          	movff	fsr0l,??_tlc_interrupt_blank+2
  2492  000014  ED5A  F003         	call	int_func,f	;refresh shadow registers
  2493                           pclatu	equ	0xFFB
  2494                           pclath	equ	0xFFA
  2495                           tblptru	equ	0xFF8
  2496                           tblptrh	equ	0xFF7
  2497                           tblptrl	equ	0xFF6
  2498                           tablat	equ	0xFF5
  2499                           prodh	equ	0xFF4
  2500                           prodl	equ	0xFF3
  2501                           intcon	equ	0xFF2
  2502                           postinc0	equ	0xFEE
  2503                           fsr0h	equ	0xFEA
  2504                           fsr0l	equ	0xFE9
  2505                           wreg	equ	0xFE8
  2506                           indf1	equ	0xFE7
  2507                           fsr1h	equ	0xFE2
  2508                           fsr1l	equ	0xFE1
  2509                           indf2	equ	0xFDF
  2510                           fsr2h	equ	0xFDA
  2511                           fsr2l	equ	0xFD9
  2512                           status	equ	0xFD8
  2513                           pclatu	equ	0xFFB
  2514                           pclath	equ	0xFFA
  2515                           tblptru	equ	0xFF8
  2516                           tblptrh	equ	0xFF7
  2517                           tblptrl	equ	0xFF6
  2518                           tablat	equ	0xFF5
  2519                           prodh	equ	0xFF4
  2520                           prodl	equ	0xFF3
  2521                           intcon	equ	0xFF2
  2522                           postinc0	equ	0xFEE
  2523                           fsr0h	equ	0xFEA
  2524                           fsr0l	equ	0xFE9
  2525                           wreg	equ	0xFE8
  2526                           indf1	equ	0xFE7
  2527                           fsr1h	equ	0xFE2
  2528                           fsr1l	equ	0xFE1
  2529                           indf2	equ	0xFDF
  2530                           fsr2h	equ	0xFDA
  2531                           fsr2l	equ	0xFD9
  2532                           status	equ	0xFD8
  2533                           
  2534                           	psect	rparam
  2535  0000                     pclatu	equ	0xFFB
  2536                           pclath	equ	0xFFA
  2537                           tblptru	equ	0xFF8
  2538                           tblptrh	equ	0xFF7
  2539                           tblptrl	equ	0xFF6
  2540                           tablat	equ	0xFF5
  2541                           prodh	equ	0xFF4
  2542                           prodl	equ	0xFF3
  2543                           intcon	equ	0xFF2
  2544                           postinc0	equ	0xFEE
  2545                           fsr0h	equ	0xFEA
  2546                           fsr0l	equ	0xFE9
  2547                           wreg	equ	0xFE8
  2548                           indf1	equ	0xFE7
  2549                           fsr1h	equ	0xFE2
  2550                           fsr1l	equ	0xFE1
  2551                           indf2	equ	0xFDF
  2552                           fsr2h	equ	0xFDA
  2553                           fsr2l	equ	0xFD9
  2554                           status	equ	0xFD8


Data Sizes:
    Strings     0
    Constant    0
    Data        0
    BSS         34
    Persistent  0
    Stack       0

Auto Spaces:
    Space          Size  Autos    Used
    COMRAM          127     30      64
    BANK0           128      0       0
    BANK1           256      0       0
    BANK2           256      0       0
    BANK3           256      0       0
    BANK4           256      0       0
    BANK5           256      0       0

Pointer List with Targets:

    None.

Critical Paths under _main in COMRAM

    _main->_tlc_sweep_update
    _tlc_write->_tlc_spi_send_data
    _tlc_update->_tlc_spi_send_data
    _tlc_sweep_update->_tlc_sweep_delay
    _tlc_init->_tlc_spi_send_data

Critical Paths under _tlc_interrupt_blank in COMRAM

    None.

Critical Paths under _main in BANK0

    None.

Critical Paths under _tlc_interrupt_blank in BANK0

    None.

Critical Paths under _main in BANK1

    None.

Critical Paths under _tlc_interrupt_blank in BANK1

    None.

Critical Paths under _main in BANK2

    None.

Critical Paths under _tlc_interrupt_blank in BANK2

    None.

Critical Paths under _main in BANK3

    None.

Critical Paths under _tlc_interrupt_blank in BANK3

    None.

Critical Paths under _main in BANK4

    None.

Critical Paths under _tlc_interrupt_blank in BANK4

    None.

Critical Paths under _main in BANK5

    None.

Critical Paths under _tlc_interrupt_blank in BANK5

    None.

Call Graph Tables:

 ---------------------------------------------------------------------------------
 (Depth) Function   	        Calls       Base Space   Used Autos Params    Refs
 ---------------------------------------------------------------------------------
 (0) _main                                                 0     0      0    1800
                          _delay_sec
                           _tlc_init
                       _tlc_pwm_init
                            _tlc_set
                       _tlc_spi_init
                      _tlc_sweep_set
                   _tlc_sweep_update
                         _tlc_update
                          _tlc_write
 ---------------------------------------------------------------------------------
 (1) _tlc_write                                           10     8      2     304
                                             15 COMRAM    10     8      2
                  _tlc_spi_send_data
 ---------------------------------------------------------------------------------
 (1) _tlc_update                                           7     7      0     135
                                             15 COMRAM     7     7      0
                  _tlc_spi_send_data
 ---------------------------------------------------------------------------------
 (1) _tlc_sweep_update                                    13    11      2     443
                                             17 COMRAM    13    11      2
                  _tlc_spi_send_data
                    _tlc_sweep_delay
 ---------------------------------------------------------------------------------
 (2) _tlc_sweep_delay                                      3     1      2      49
                                             14 COMRAM     3     1      2
 ---------------------------------------------------------------------------------
 (1) _tlc_sweep_set                                        3     1      2     192
                                             14 COMRAM     3     1      2
 ---------------------------------------------------------------------------------
 (1) _tlc_spi_init                                         0     0      0       0
 ---------------------------------------------------------------------------------
 (1) _tlc_set                                              3     1      2     441
                                             14 COMRAM     3     1      2
 ---------------------------------------------------------------------------------
 (1) _tlc_pwm_init                                         0     0      0       0
 ---------------------------------------------------------------------------------
 (1) _tlc_init                                            10    10      0     255
                                             15 COMRAM    10    10      0
                  _tlc_spi_send_data
 ---------------------------------------------------------------------------------
 (2) _tlc_spi_send_data                                    1     1      0      15
                                             14 COMRAM     1     1      0
 ---------------------------------------------------------------------------------
 (1) _delay_sec                                            3     3      0      30
                                             14 COMRAM     3     3      0
 ---------------------------------------------------------------------------------
 Estimated maximum stack depth 2
 ---------------------------------------------------------------------------------
 (Depth) Function   	        Calls       Base Space   Used Autos Params    Refs
 ---------------------------------------------------------------------------------
 (3) _tlc_interrupt_blank                                 14    14      0       0
                                              0 COMRAM    14    14      0
 ---------------------------------------------------------------------------------
 Estimated maximum stack depth 3
 ---------------------------------------------------------------------------------

 Call Graph Graphs:

 _main (ROOT)
   _delay_sec
   _tlc_init
     _tlc_spi_send_data
   _tlc_pwm_init
   _tlc_set
   _tlc_spi_init
   _tlc_sweep_set
   _tlc_sweep_update
     _tlc_spi_send_data
     _tlc_sweep_delay
   _tlc_update
     _tlc_spi_send_data
   _tlc_write
     _tlc_spi_send_data

 _tlc_interrupt_blank (ROOT)

 Address spaces:
Name               Size   Autos  Total    Cost      Usage
BIGRAM             5FF      0       0      17        0.0%
EEDATA             100      0       0       0        0.0%
BITBANK5           100      0       0      16        0.0%
BANK5              100      0       0      14        0.0%
BITBANK4           100      0       0      12        0.0%
BANK4              100      0       0      13        0.0%
BITBANK3           100      0       0      10        0.0%
BANK3              100      0       0      11        0.0%
BITBANK2           100      0       0       8        0.0%
BANK2              100      0       0       9        0.0%
BITBANK1           100      0       0       6        0.0%
BANK1              100      0       0       7        0.0%
BITBANK0            80      0       0       4        0.0%
BANK0               80      0       0       5        0.0%
BITCOMRAM           7F      0       0       0        0.0%
COMRAM              7F     1E      40       1       50.4%
BITSFR               0      0       0      40        0.0%
SFR                  0      0       0      40        0.0%
STACK                0      0       0       2        0.0%
NULL                 0      0       0       0        0.0%
ABS                  0      0      40      15        0.0%
DATA                 0      0      40       3        0.0%
CODE                 0      0       0       0        0.0%


Microchip Technology PIC18 Macro Assembler V1.32 build 58300 
Symbol Table                                                                                   Sat Jul 05 05:39:22 2014

           ??_tlc_sweep_update 0036                    _SSPSTATbits 000FC7                             l52 0362  
                           l57 06A8                             l73 04B6                             l91 0062  
                           l77 0866                             l98 011C                   __CFG_CP0$OFF 000000  
                 __CFG_CP1$OFF 000000                   __CFG_CP2$OFF 000000                   __CFG_CP3$OFF 000000  
                  __CFG_OSC$HS 000000                            l102 0116                            l104 01D8  
                          l141 084E                            l802 02AE                            l734 0852  
                          l902 006C                            l770 0222                            l842 0772  
                          l914 00F2                            l844 079A                            l916 0112  
                          l852 03A6                            l854 03CE                            l936 01EE  
                          l796 028C                            l886 07F4                            l894 0038  
                          l888 0808                            l968 04CE                            l898 004A  
                          _PR2 000FCB                            u407 083E                            u377 0858  
                          u387 0212                            u397 0240                            prod 000FF3  
                          wreg 000FE8                   __CFG_LVP$OFF 000000                   __CFG_WDT$OFF 000000  
                         _main 04C2                           fsr0h 000FEA                           fsr1h 000FE2  
                         fsr0l 000FE9                           fsr2h 000FDA                           indf1 000FE7  
                         fsr1l 000FE1                           indf2 000FDF                           fsr2l 000FD9  
                         pclat 000FFA                           prodh 000FF4                           prodl 000FF3  
                         start 0018                  __CFG_MCLRE$ON 000000                tlc_init@counter 0038  
                        ?_main 0023                          _T2CON 000FCA                          i2l146 070C  
                        i2l958 0706                  __CFG_PWRT$OFF 000000        tlc_sweep_update@counter 003D  
               __CFG_BOREN$OFF 000000                          tablat 000FF5                __end_of_tlc_set 07C8  
                        status 000FD8                __initialization 08A2                   __end_of_main 05EC  
                       ??_main 0041                  __activetblptr 000000                         _CCPR1L 000FBE  
                       _SSPBUF 000FC9                         clear_0 08A8            _tlc_interrupt_blank 0008  
             __end_of_tlc_init 037A                         tblptrh 000FF7                         tblptrl 000FF6  
                       tblptru 000FF8                      ??_tlc_set 0033                _tlc_sweep_delay 0850  
                   __accesstop 0080        __end_of__initialization 08AE           ?_tlc_interrupt_blank 0023  
               __pcstackCOMRAM 0023              tlc_sweep_update@i 003F              tlc_sweep_update@j 003B  
           __size_of_delay_sec 0030      __size_of_tlc_sweep_update 01DE               tlc_write@counter 0039  
        ??_tlc_interrupt_blank 0023        tlc_set@tlc_servo_number 0033  tlc_sweep_set@tlc_servo_number 0033  
        __end_of_tlc_sweep_set 0820                        _CCP1CON 000FBD        __end_of_tlc_sweep_delay 0870  
           __size_of_tlc_write 0148              __end_of_delay_sec 0850                        __Hparam 0000  
                      __Lparam 0000                      ?_tlc_init 0023                        __pcinit 08A2  
                      __ramtop 0600                        __ptext0 04C2                        __ptext1 037A  
                      __ptext2 05EC                        __ptext3 001C                        __ptext4 0850  
                      __ptext5 07C8                        __ptext6 088C                        __ptext7 0746  
                      __ptext8 0870                        __ptext9 01FA                      _T2CONbits 000FCA  
                ?_tlc_spi_init 0023                  ?_tlc_pwm_init 0023                        _tlc_set 0746  
               __pintcode_body 06B4           end_of_initialization 08AE                     delay_sec@i 0032  
                      int_func 06B4              __end_of_tlc_write 04C2                     ??_tlc_init 0032  
                  tlc_update@i 0038                        postinc0 000FEE                     _tlc_update 05EC  
             _tlc_sweep_update 001C               ?_tlc_sweep_delay 0031                 ??_tlc_spi_init 0031  
               ??_tlc_pwm_init 0031                      _TRISCbits 000F94                      _TRISDbits 000F95  
        tlc_sweep_update@i_627 003E          tlc_sweep_update@speed 0034             tlc_sweep_set@value 0031  
          start_initialization 08A2                 _tlc_servo_temp 0011                    ?_tlc_update 0023  
                  __pbssCOMRAM 0001    __end_of_tlc_interrupt_blank 0746           __end_of_tlc_spi_init 08A2  
                    _delay_sec 0820           __end_of_tlc_pwm_init 088C                      __pintcode 0008  
            __size_of_tlc_init 0180                       ?_tlc_set 0031         __size_of_tlc_sweep_set 0058  
          __size_of_tlc_update 00C8                       _LATDbits 000F8C       __end_of_tlc_sweep_update 01FA  
                     _PIE1bits 000F9D                     ?_delay_sec 0023                       _PIR1bits 000F9E  
                    _tlc_servo 0001                      _tlc_write 037A                     tlc_write@i 003B  
                tlc_init@i_603 003A                  tlc_init@i_605 0039              _tlc_spi_send_data 08B4  
           ?_tlc_spi_send_data 0023      tlc_write@tlc_servo_number 003A            ??_tlc_spi_send_data 0031  
                     __Hrparam 0000                       __Lrparam 0000                     ?_tlc_write 0032  
        tlc_spi_send_data@data 0031                  _tlc_sweep_set 07C8      __end_of_tlc_spi_send_data 08C0  
               tlc_write@value 0032                       __ptext10 08B4                       __ptext11 0820  
             __size_of_tlc_set 0082       __size_of_tlc_sweep_delay 0020          __size_of_tlc_spi_init 0016  
        __size_of_tlc_pwm_init 001C                  __size_of_main 012A                      tlc_init@i 0037  
                  ??_delay_sec 0031                       _tlc_init 01FA                   ??_tlc_update 0032  
               ?_tlc_sweep_set 0031          _tlc_interrupt_counter 0021                     _INTCONbits 000FF2  
                 _tlc_spi_init 088C                   _tlc_pwm_init 0870                   tlc_set@value 0031  
         tlc_sweep_delay@count 0031                       intlevel2 0000             __end_of_tlc_update 06B4  
            tlc_update@counter 0037                    ??_tlc_write 0034     __size_of_tlc_spi_send_data 000C  
                  _SSPCON1bits 000FC6   __size_of_tlc_interrupt_blank 073E              ?_tlc_sweep_update 0034  
            ??_tlc_sweep_delay 0033                ??_tlc_sweep_set 0033  
