

Microchip Technology PIC18 LITE Macro Assembler V1.32 build 58300 
                                                                                               Tue Jun 10 09:05:45 2014

Microchip Technology Omniscient Code Generator (Lite mode) build 58300
     1                           	processor	18F4520
     2                           	fnconf	rparam,??,?,0
     3                           	opt	pw 120
     4                           	opt	lm
     5                           	psect	intcode_body,global,reloc=2,class=CODE,delta=1
     6                           	psect	cinit,global,reloc=2,class=CODE,delta=1
     7                           	psect	bssCOMRAM,global,class=COMRAM,space=1,delta=1
     8                           	psect	cstackCOMRAM,global,class=COMRAM,space=1,delta=1
     9                           	psect	text0,global,reloc=2,class=CODE,delta=1
    10                           	psect	text1,global,reloc=2,class=CODE,delta=1
    11                           	psect	text2,global,reloc=2,class=CODE,delta=1
    12                           	psect	text3,global,reloc=2,class=CODE,delta=1
    13                           	psect	text4,global,reloc=2,class=CODE,delta=1
    14                           	psect	text5,global,reloc=2,class=CODE,delta=1
    15                           	psect	text6,global,reloc=2,class=CODE,delta=1
    16                           	psect	text7,global,reloc=2,class=CODE,delta=1
    17                           	psect	text8,global,reloc=2,class=CODE,delta=1
    18                           	psect	intcode,global,reloc=2,class=CODE,delta=1
    19                           	psect	intsave_regs,global,class=BIGRAM,space=1,delta=1
    20                           	psect	rparam,global,class=COMRAM,space=1,delta=1
    21  0000                     _CCP1CON	set	4029
    22  0000                     _CCPR1L	set	4030
    23  0000                     _INTCONbits	set	4082
    24  0000                     _LATDbits	set	3980
    25  0000                     _PIE1bits	set	3997
    26  0000                     _PIR1bits	set	3998
    27  0000                     _PORTA	set	3968
    28  0000                     _PORTB	set	3969
    29  0000                     _PORTC	set	3970
    30  0000                     _PORTD	set	3971
    31  0000                     _PORTE	set	3972
    32  0000                     _PR2	set	4043
    33  0000                     _SSPBUF	set	4041
    34  0000                     _SSPCON1bits	set	4038
    35  0000                     _SSPSTATbits	set	4039
    36  0000                     _T2CON	set	4042
    37  0000                     _T2CONbits	set	4042
    38  0000                     _TRISA	set	3986
    39  0000                     _TRISB	set	3987
    40  0000                     _TRISC	set	3988
    41  0000                     _TRISCbits	set	3988
    42  0000                     _TRISD	set	3989
    43  0000                     _TRISE	set	3990
    44                           
    45                           	psect	intcode_body
    46  0001F8                     __pintcode_body:
    47                           	opt stack 0
    48                           
    49                           ; #config settings
    50  0001F8                     int_func:
    51                           	opt stack 28
    52  0001F8  0006               	pop		; remove dummy address from shadow register refresh
    53  0001FA  CFEA F004          	movff	fsr0h,??_blank_pulse+3
    54  0001FE  CFE1 F005          	movff	fsr1l,??_blank_pulse+4
    55  000202  CFE2 F006          	movff	fsr1h,??_blank_pulse+5
    56  000206  CFD9 F007          	movff	fsr2l,??_blank_pulse+6
    57  00020A  CFDA F008          	movff	fsr2h,??_blank_pulse+7
    58  00020E  CFF3 F009          	movff	prodl,??_blank_pulse+8
    59  000212  CFF4 F00A          	movff	prodh,??_blank_pulse+9
    60  000216  CFF6 F00B          	movff	tblptrl,??_blank_pulse+10
    61  00021A  CFF7 F00C          	movff	tblptrh,??_blank_pulse+11
    62  00021E  CFF8 F00D          	movff	tblptru,??_blank_pulse+12
    63  000222  CFF5 F00E          	movff	tablat,??_blank_pulse+13
    64                           
    65                           ;main.c: 31: if(PIE1bits.TMR2IE && PIR1bits.TMR2IF)
    66  000226  B29D               	btfsc	3997,1,c	;volatile
    67  000228  A29E               	btfss	3998,1,c	;volatile
    68  00022A  D012               	goto	i2l93
    69                           
    70                           ;main.c: 32: {
    71                           ;main.c: 33: if(count >= 222)
    72  00022C  5027               	movf	_count+1,w,c	;volatile
    73  00022E  0A80               	xorlw	128
    74  000230  0F80               	addlw	-128
    75  000232  0EDE               	movlw	222
    76  000234  B4D8               	btfsc	status,2,c
    77  000236  5C26               	subwf	_count,w,c	;volatile
    78  000238  A0D8               	btfss	status,0,c
    79  00023A  D007               	goto	i2l873
    80                           
    81                           ;main.c: 34: {
    82                           ;main.c: 35: LATDbits.LD2 = 1;
    83  00023C  848C               	bsf	3980,2,c	;volatile
    84                           
    85                           ;main.c: 36: _delay((unsigned long)((1)*(8000000/4000000.0)));
    86  00023E  D000               	nop2		;2 cycle nop
    87                           
    88                           ;main.c: 37: LATDbits.LD2 = 0;
    89  000240  948C               	bcf	3980,2,c	;volatile
    90                           
    91                           ;main.c: 38: count = 0;
    92  000242  0E00               	movlw	0
    93  000244  6E27               	movwf	_count+1,c	;volatile
    94  000246  0E00               	movlw	0
    95  000248  6E26               	movwf	_count,c	;volatile
    96  00024A                     i2l873:
    97                           
    98                           ;main.c: 39: }
    99                           ;main.c: 40: count++;
   100  00024A  4A26               	infsnz	_count,f,c	;volatile
   101  00024C  2A27               	incf	_count+1,f,c	;volatile
   102                           
   103                           ;main.c: 41: PIR1bits.TMR2IF = 0;
   104  00024E  929E               	bcf	3998,1,c	;volatile
   105  000250                     i2l93:
   106  000250  C00E  FFF5         	movff	??_blank_pulse+13,tablat
   107  000254  C00D  FFF8         	movff	??_blank_pulse+12,tblptru
   108  000258  C00C  FFF7         	movff	??_blank_pulse+11,tblptrh
   109  00025C  C00B  FFF6         	movff	??_blank_pulse+10,tblptrl
   110  000260  C00A  FFF4         	movff	??_blank_pulse+9,prodh
   111  000264  C009  FFF3         	movff	??_blank_pulse+8,prodl
   112  000268  C008  FFDA         	movff	??_blank_pulse+7,fsr2h
   113  00026C  C007  FFD9         	movff	??_blank_pulse+6,fsr2l
   114  000270  C006  FFE2         	movff	??_blank_pulse+5,fsr1h
   115  000274  C005  FFE1         	movff	??_blank_pulse+4,fsr1l
   116  000278  C004  FFEA         	movff	??_blank_pulse+3,fsr0h
   117  00027C  C003  FFE9         	movff	??_blank_pulse+2,fsr0l
   118  000280  C002  FFFB         	movff	??_blank_pulse+1,pclatu
   119  000284  C001  FFFA         	movff	??_blank_pulse,pclath
   120  000288  0011               	retfie		f
   121  00028A                     __end_of_blank_pulse:
   122                           	opt stack 0
   123  0000                     pclatu	equ	0xFFB
   124                           pclath	equ	0xFFA
   125                           tblptru	equ	0xFF8
   126                           tblptrh	equ	0xFF7
   127                           tblptrl	equ	0xFF6
   128                           tablat	equ	0xFF5
   129                           prodh	equ	0xFF4
   130                           prodl	equ	0xFF3
   131                           fsr0h	equ	0xFEA
   132                           fsr0l	equ	0xFE9
   133                           fsr1h	equ	0xFE2
   134                           fsr1l	equ	0xFE1
   135                           fsr2h	equ	0xFDA
   136                           fsr2l	equ	0xFD9
   137                           status	equ	0xFD8
   138                           
   139                           	psect	cinit
   140  00042E                     __pcinit:
   141                           	opt stack 0
   142  00042E                     start_initialization:
   143                           	opt stack 0
   144  00042E                     __initialization:
   145                           	opt stack 0
   146                           
   147                           ; Clear objects allocated to COMRAM (18 bytes)
   148  00042E  EE00  F016         	lfsr	0,__pbssCOMRAM
   149  000432  0E12               	movlw	18
   150  000434                     clear_0:
   151  000434  6AEE               	clrf	postinc0,c
   152  000436  06E8               	decf	wreg,f,c
   153  000438  E1FD               	bnz	clear_0
   154  00043A                     end_of_initialization:
   155                           	opt stack 0
   156  00043A                     __end_of__initialization:
   157                           	opt stack 0
   158  00043A  0100               	movlb	0
   159  00043C  EF45  F001         	goto	_main	;jump to C main() function
   160                           pclatu	equ	0xFFB
   161                           pclath	equ	0xFFA
   162                           tblptru	equ	0xFF8
   163                           tblptrh	equ	0xFF7
   164                           tblptrl	equ	0xFF6
   165                           tablat	equ	0xFF5
   166                           prodh	equ	0xFF4
   167                           prodl	equ	0xFF3
   168                           postinc0	equ	0xFEE
   169                           fsr0h	equ	0xFEA
   170                           fsr0l	equ	0xFE9
   171                           wreg	equ	0xFE8
   172                           fsr1h	equ	0xFE2
   173                           fsr1l	equ	0xFE1
   174                           fsr2h	equ	0xFDA
   175                           fsr2l	equ	0xFD9
   176                           status	equ	0xFD8
   177                           
   178                           	psect	bssCOMRAM
   179  000016                     __pbssCOMRAM:
   180                           	opt stack 0
   181  000016                     _channel:
   182                           	opt stack 0
   183  000016                     	ds	16
   184  000026                     _count:
   185                           	opt stack 0
   186  000026                     	ds	2
   187                           pclatu	equ	0xFFB
   188                           pclath	equ	0xFFA
   189                           tblptru	equ	0xFF8
   190                           tblptrh	equ	0xFF7
   191                           tblptrl	equ	0xFF6
   192                           tablat	equ	0xFF5
   193                           prodh	equ	0xFF4
   194                           prodl	equ	0xFF3
   195                           postinc0	equ	0xFEE
   196                           fsr0h	equ	0xFEA
   197                           fsr0l	equ	0xFE9
   198                           wreg	equ	0xFE8
   199                           fsr1h	equ	0xFE2
   200                           fsr1l	equ	0xFE1
   201                           fsr2h	equ	0xFDA
   202                           fsr2l	equ	0xFD9
   203                           status	equ	0xFD8
   204                           
   205                           	psect	cstackCOMRAM
   206  000001                     __pcstackCOMRAM:
   207                           	opt stack 0
   208  000001                     ??_blank_pulse:
   209  000001                     
   210                           ; 2 bytes @ 0x0
   211  000001                     	ds	14
   212  00000F                     ??_serial_send_data:
   213  00000F                     ??_delay_sec:
   214  00000F                     set_channel@value:
   215                           	opt stack 0
   216                           
   217                           ; 1 bytes @ 0xE
   218  00000F                     	ds	1
   219  000010                     serial_send_data@data:
   220                           	opt stack 0
   221  000010                     set_channel@channel_number:
   222                           	opt stack 0
   223  000010                     delay_sec@i:
   224                           	opt stack 0
   225                           
   226                           ; 2 bytes @ 0xF
   227  000010                     	ds	1
   228  000011                     ??_init_dot_correction:
   229  000011                     ??_init_grayscale:
   230  000011                     ??_update_grayscale:
   231                           
   232                           ; 0 bytes @ 0x10
   233  000011                     	ds	3
   234  000014                     update_grayscale@counter:
   235                           	opt stack 0
   236                           
   237                           ; 1 bytes @ 0x13
   238  000014                     	ds	1
   239  000015                     update_grayscale@i:
   240                           	opt stack 0
   241                           
   242                           ; 1 bytes @ 0x14
   243  000015                     	ds	1
   244  000016                     pclatu	equ	0xFFB
   245                           pclath	equ	0xFFA
   246                           tblptru	equ	0xFF8
   247                           tblptrh	equ	0xFF7
   248                           tblptrl	equ	0xFF6
   249                           tablat	equ	0xFF5
   250                           prodh	equ	0xFF4
   251                           prodl	equ	0xFF3
   252                           postinc0	equ	0xFEE
   253                           fsr0h	equ	0xFEA
   254                           fsr0l	equ	0xFE9
   255                           wreg	equ	0xFE8
   256                           fsr1h	equ	0xFE2
   257                           fsr1l	equ	0xFE1
   258                           fsr2h	equ	0xFDA
   259                           fsr2l	equ	0xFD9
   260                           status	equ	0xFD8
   261                           
   262                           ; 0 bytes @ 0x15
   263 ;;
   264 ;;Main: autosize = 0, tempsize = 0, incstack = 0, save=0
   265 ;;
   266 ;; *************** function _main *****************
   267 ;; Defined at:
   268 ;;		line 72 in file "main.c"
   269 ;; Parameters:    Size  Location     Type
   270 ;;		None
   271 ;; Auto vars:     Size  Location     Type
   272 ;;		None
   273 ;; Return value:  Size  Location     Type
   274 ;;                  2  101[COMRAM] int 
   275 ;; Registers used:
   276 ;;		wreg, fsr2l, fsr2h, status,2, status,0, prodl, prodh, cstack
   277 ;; Tracked objects:
   278 ;;		On entry : 0/0
   279 ;;		On exit  : 0/0
   280 ;;		Unchanged: 0/0
   281 ;; Data sizes:     COMRAM   BANK0   BANK1   BANK2   BANK3   BANK4   BANK5
   282 ;;      Params:         0       0       0       0       0       0       0
   283 ;;      Locals:         0       0       0       0       0       0       0
   284 ;;      Temps:          0       0       0       0       0       0       0
   285 ;;      Totals:         0       0       0       0       0       0       0
   286 ;;Total ram usage:        0 bytes
   287 ;; Hardware stack levels required when called:    3
   288 ;; This function calls:
   289 ;;		_TMR2_init
   290 ;;		_delay_sec
   291 ;;		_init_dot_correction
   292 ;;		_init_grayscale
   293 ;;		_set_channel
   294 ;;		_spi_init
   295 ;;		_update_grayscale
   296 ;; This function is called by:
   297 ;;		Startup code after reset
   298 ;; This function uses a non-reentrant model
   299 ;;
   300                           
   301                           	psect	text0
   302  00028A                     __ptext0:
   303                           	opt stack 0
   304  00028A                     _main:
   305                           	opt stack 28
   306                           
   307                           ;main.c: 75: TRISD = 0b00000000;
   308                           
   309                           ;incstack = 0
   310  00028A  0E00               	movlw	0
   311  00028C  6E95               	movwf	3989,c	;volatile
   312                           
   313                           ;main.c: 76: PORTD = 0b00000000;
   314  00028E  0E00               	movlw	0
   315  000290  6E83               	movwf	3971,c	;volatile
   316                           
   317                           ;main.c: 77: TRISB = 0b00100000;
   318  000292  0E20               	movlw	32
   319  000294  6E93               	movwf	3987,c	;volatile
   320                           
   321                           ;main.c: 78: PORTB = 0b00000000;
   322  000296  0E00               	movlw	0
   323  000298  6E81               	movwf	3969,c	;volatile
   324                           
   325                           ;main.c: 79: TRISA = 0b00001111;
   326  00029A  0E0F               	movlw	15
   327  00029C  6E92               	movwf	3986,c	;volatile
   328                           
   329                           ;main.c: 80: PORTA = 0b00001111;
   330  00029E  0E0F               	movlw	15
   331  0002A0  6E80               	movwf	3968,c	;volatile
   332                           
   333                           ;main.c: 81: TRISE = 0b00001000;
   334  0002A2  0E08               	movlw	8
   335  0002A4  6E96               	movwf	3990,c	;volatile
   336                           
   337                           ;main.c: 82: PORTE = 0b00000000;
   338  0002A6  0E00               	movlw	0
   339  0002A8  6E84               	movwf	3972,c	;volatile
   340                           
   341                           ;main.c: 84: TMR2_init();
   342  0002AA  ECE6  F001         	call	_TMR2_init	;wreg free
   343                           
   344                           ;main.c: 85: count = 0;
   345  0002AE  0E00               	movlw	0
   346  0002B0  6E27               	movwf	_count+1,c	;volatile
   347  0002B2  0E00               	movlw	0
   348  0002B4  6E26               	movwf	_count,c	;volatile
   349                           
   350                           ;main.c: 87: PIE1bits.TMR2IE = 1;
   351  0002B6  829D               	bsf	3997,1,c	;volatile
   352                           
   353                           ;main.c: 88: INTCONbits.PEIE = 1;
   354  0002B8  8CF2               	bsf	intcon,6,c	;volatile
   355                           
   356                           ;main.c: 89: INTCONbits.GIE = 1;
   357  0002BA  8EF2               	bsf	intcon,7,c	;volatile
   358                           
   359                           ;main.c: 90: T2CONbits.TMR2ON = 0;
   360  0002BC  94CA               	bcf	4042,2,c	;volatile
   361                           
   362                           ;main.c: 92: spi_init();
   363  0002BE  EC01  F002         	call	_spi_init	;wreg free
   364                           
   365                           ;main.c: 93: init_dot_correction();
   366  0002C2  EC8D  F001         	call	_init_dot_correction	;wreg free
   367                           
   368                           ;main.c: 94: init_grayscale();
   369  0002C6  EC0E  F000         	call	_init_grayscale	;wreg free
   370                           
   371                           ;main.c: 95: update_grayscale();
   372  0002CA  EC98  F000         	call	_update_grayscale	;wreg free
   373                           
   374                           ;main.c: 97: T2CONbits.TMR2ON = 1;
   375  0002CE  84CA               	bsf	4042,2,c	;volatile
   376  0002D0                     l901:
   377                           
   378                           ;main.c: 99: {
   379                           ;main.c: 100: LATDbits.LD3 = 1;
   380  0002D0  868C               	bsf	3980,3,c	;volatile
   381                           
   382                           ;main.c: 101: delay_sec();
   383  0002D2  ECCE  F001         	call	_delay_sec	;wreg free
   384                           
   385                           ;main.c: 102: LATDbits.LD3 = 0;
   386  0002D6  968C               	bcf	3980,3,c	;volatile
   387                           
   388                           ;main.c: 103: delay_sec();
   389  0002D8  ECCE  F001         	call	_delay_sec	;wreg free
   390                           
   391                           ;main.c: 104: set_channel(0, 0);
   392  0002DC  0E00               	movlw	0
   393  0002DE  6E0F               	movwf	set_channel@value,c
   394  0002E0  0E00               	movlw	0
   395  0002E2  ECF4  F001         	call	_set_channel
   396                           
   397                           ;main.c: 105: update_grayscale();
   398  0002E6  EC98  F000         	call	_update_grayscale	;wreg free
   399                           
   400                           ;main.c: 106: delay_sec();
   401  0002EA  ECCE  F001         	call	_delay_sec	;wreg free
   402                           
   403                           ;main.c: 107: delay_sec();
   404  0002EE  ECCE  F001         	call	_delay_sec	;wreg free
   405                           
   406                           ;main.c: 108: delay_sec();
   407  0002F2  ECCE  F001         	call	_delay_sec	;wreg free
   408                           
   409                           ;main.c: 109: delay_sec();
   410  0002F6  ECCE  F001         	call	_delay_sec	;wreg free
   411                           
   412                           ;main.c: 111: set_channel(0, 180);
   413  0002FA  0EB4               	movlw	180
   414  0002FC  6E0F               	movwf	set_channel@value,c
   415  0002FE  0E00               	movlw	0
   416  000300  ECF4  F001         	call	_set_channel
   417                           
   418                           ;main.c: 112: update_grayscale();
   419  000304  EC98  F000         	call	_update_grayscale	;wreg free
   420                           
   421                           ;main.c: 113: delay_sec();
   422  000308  ECCE  F001         	call	_delay_sec	;wreg free
   423                           
   424                           ;main.c: 114: delay_sec();
   425  00030C  ECCE  F001         	call	_delay_sec	;wreg free
   426                           
   427                           ;main.c: 115: delay_sec();
   428  000310  ECCE  F001         	call	_delay_sec	;wreg free
   429                           
   430                           ;main.c: 116: delay_sec();
   431  000314  ECCE  F001         	call	_delay_sec	;wreg free
   432  000318  D7DB               	goto	l901
   433  00031A                     __end_of_main:
   434                           	opt stack 0
   435                           pclatu	equ	0xFFB
   436                           pclath	equ	0xFFA
   437                           tblptru	equ	0xFF8
   438                           tblptrh	equ	0xFF7
   439                           tblptrl	equ	0xFF6
   440                           tablat	equ	0xFF5
   441                           prodh	equ	0xFF4
   442                           prodl	equ	0xFF3
   443                           intcon	equ	0xFF2
   444                           postinc0	equ	0xFEE
   445                           fsr0h	equ	0xFEA
   446                           fsr0l	equ	0xFE9
   447                           wreg	equ	0xFE8
   448                           fsr1h	equ	0xFE2
   449                           fsr1l	equ	0xFE1
   450                           fsr2h	equ	0xFDA
   451                           fsr2l	equ	0xFD9
   452                           status	equ	0xFD8
   453                           
   454 ;; *************** function _update_grayscale *****************
   455 ;; Defined at:
   456 ;;		line 102 in file "tlc5940.c"
   457 ;; Parameters:    Size  Location     Type
   458 ;;		None
   459 ;; Auto vars:     Size  Location     Type
   460 ;;  i               1   20[COMRAM] unsigned char 
   461 ;;  counter         1   19[COMRAM] unsigned char 
   462 ;; Return value:  Size  Location     Type
   463 ;;		None               void
   464 ;; Registers used:
   465 ;;		wreg, fsr2l, fsr2h, status,2, status,0, cstack
   466 ;; Tracked objects:
   467 ;;		On entry : 0/0
   468 ;;		On exit  : 0/0
   469 ;;		Unchanged: 0/0
   470 ;; Data sizes:     COMRAM   BANK0   BANK1   BANK2   BANK3   BANK4   BANK5
   471 ;;      Params:         0       0       0       0       0       0       0
   472 ;;      Locals:         2       0       0       0       0       0       0
   473 ;;      Temps:          3       0       0       0       0       0       0
   474 ;;      Totals:         5       0       0       0       0       0       0
   475 ;;Total ram usage:        5 bytes
   476 ;; Hardware stack levels used:    1
   477 ;; Hardware stack levels required when called:    2
   478 ;; This function calls:
   479 ;;		_serial_send_data
   480 ;; This function is called by:
   481 ;;		_main
   482 ;; This function uses a non-reentrant model
   483 ;;
   484                           
   485                           	psect	text1
   486  000130                     __ptext1:
   487                           	opt stack 0
   488  000130                     _update_grayscale:
   489                           	opt stack 28
   490                           
   491                           ;tlc5940.c: 104: _delay((unsigned long)((2)*(8000000/4000.0)));
   492                           
   493                           ;incstack = 0
   494  000130  0E06               	movlw	6
   495  000132  6E11               	movwf	??_update_grayscale& (0+255),c
   496  000134  0E30               	movlw	48
   497  000136                     u87:
   498  000136  2EE8               	decfsz	wreg,f,c
   499  000138  D7FE               	goto	u87
   500  00013A  2E11               	decfsz	??_update_grayscale& (0+255),f,c
   501  00013C  D7FC               	goto	u87
   502  00013E  D000               	nop2	
   503                           
   504                           ;tlc5940.c: 106: T2CONbits.TMR2ON = 0;
   505  000140  94CA               	bcf	4042,2,c	;volatile
   506                           
   507                           ;tlc5940.c: 107: LATDbits.LD1 = 0;
   508  000142  928C               	bcf	3980,1,c	;volatile
   509                           
   510                           ;tlc5940.c: 108: LATDbits.LD0 = 0;
   511  000144  908C               	bcf	3980,0,c	;volatile
   512                           
   513                           ;tlc5940.c: 109: LATDbits.LD2 = 0;
   514  000146  948C               	bcf	3980,2,c	;volatile
   515                           
   516                           ;tlc5940.c: 111: char counter = 0;
   517  000148  0E00               	movlw	0
   518  00014A  6E14               	movwf	update_grayscale@counter,c
   519                           
   520                           ;tlc5940.c: 112: for(char i = 0; i < 8; i++)
   521  00014C  0E00               	movlw	0
   522  00014E  6E15               	movwf	update_grayscale@i,c
   523  000150  D03C               	goto	L1
   524  000152                     l829:
   525                           
   526                           ;tlc5940.c: 113: {
   527                           ;tlc5940.c: 114: serial_send_data(channel[i + counter]>>4);
   528  000152  5014               	movf	update_grayscale@counter,w,c
   529  000154  C015  F011         	movff	update_grayscale@i,??_update_grayscale
   530  000158  6A12               	clrf	(??_update_grayscale+1)& (0+255),c
   531  00015A  2611               	addwf	??_update_grayscale,f,c
   532  00015C  0E00               	movlw	0
   533  00015E  2212               	addwfc	??_update_grayscale+1,f,c
   534  000160  0E16               	movlw	low _channel
   535  000162  2411               	addwf	??_update_grayscale,w,c
   536  000164  6ED9               	movwf	fsr2l,c
   537  000166  0E00               	movlw	high _channel
   538  000168  2012               	addwfc	??_update_grayscale+1,w,c
   539  00016A  6EDA               	movwf	fsr2h,c
   540  00016C  50DF               	movf	indf2,w,c
   541  00016E  6E13               	movwf	(??_update_grayscale+2)& (0+255),c
   542  000170  3813               	swapf	??_update_grayscale+2,w,c
   543  000172  0B0F               	andlw	15
   544  000174  EC0C  F002         	call	_serial_send_data
   545                           
   546                           ;tlc5940.c: 115: serial_send_data(channel[i + counter]<<4);
   547  000178  5014               	movf	update_grayscale@counter,w,c
   548  00017A  C015  F011         	movff	update_grayscale@i,??_update_grayscale
   549  00017E  6A12               	clrf	(??_update_grayscale+1)& (0+255),c
   550  000180  2611               	addwf	??_update_grayscale,f,c
   551  000182  0E00               	movlw	0
   552  000184  2212               	addwfc	??_update_grayscale+1,f,c
   553  000186  0E16               	movlw	low _channel
   554  000188  2411               	addwf	??_update_grayscale,w,c
   555  00018A  6ED9               	movwf	fsr2l,c
   556  00018C  0E00               	movlw	high _channel
   557  00018E  2012               	addwfc	??_update_grayscale+1,w,c
   558  000190  6EDA               	movwf	fsr2h,c
   559  000192  50DF               	movf	indf2,w,c
   560  000194  6E13               	movwf	(??_update_grayscale+2)& (0+255),c
   561  000196  3813               	swapf	??_update_grayscale+2,w,c
   562  000198  0BF0               	andlw	240
   563  00019A  EC0C  F002         	call	_serial_send_data
   564                           
   565                           ;tlc5940.c: 116: serial_send_data(channel[i + (counter + 1)]);
   566  00019E  5015               	movf	update_grayscale@i,w,c
   567  0001A0  C014  F011         	movff	update_grayscale@counter,??_update_grayscale
   568  0001A4  6A12               	clrf	(??_update_grayscale+1)& (0+255),c
   569  0001A6  2611               	addwf	??_update_grayscale,f,c
   570  0001A8  0E00               	movlw	0
   571  0001AA  2212               	addwfc	??_update_grayscale+1,f,c
   572  0001AC  0E01               	movlw	1
   573  0001AE  2611               	addwf	??_update_grayscale,f,c
   574  0001B0  0E00               	movlw	0
   575  0001B2  2212               	addwfc	??_update_grayscale+1,f,c
   576  0001B4  0E16               	movlw	low _channel
   577  0001B6  2411               	addwf	??_update_grayscale,w,c
   578  0001B8  6ED9               	movwf	fsr2l,c
   579  0001BA  0E00               	movlw	high _channel
   580  0001BC  2012               	addwfc	??_update_grayscale+1,w,c
   581  0001BE  6EDA               	movwf	fsr2h,c
   582  0001C0  50DF               	movf	indf2,w,c
   583  0001C2  EC0C  F002         	call	_serial_send_data
   584                           
   585                           ;tlc5940.c: 117: counter++;
   586  0001C6  2A14               	incf	update_grayscale@counter,f,c
   587  0001C8  2A15               	incf	update_grayscale@i,f,c
   588  0001CA                     L1:
   589  0001CA  0E07               	movlw	7
   590  0001CC  6415               	cpfsgt	update_grayscale@i,c
   591  0001CE  D7C1               	goto	l829
   592                           
   593                           ;tlc5940.c: 118: }
   594                           ;tlc5940.c: 120: _delay((unsigned long)((2)*(8000000/4000.0)));
   595  0001D0  0E06               	movlw	6
   596  0001D2  6E11               	movwf	??_update_grayscale& (0+255),c
   597  0001D4  0E30               	movlw	48
   598  0001D6                     u97:
   599  0001D6  2EE8               	decfsz	wreg,f,c
   600  0001D8  D7FE               	goto	u97
   601  0001DA  2E11               	decfsz	??_update_grayscale& (0+255),f,c
   602  0001DC  D7FC               	goto	u97
   603  0001DE  D000               	nop2	
   604                           
   605                           ;tlc5940.c: 121: LATDbits.LD0 = 1;
   606  0001E0  808C               	bsf	3980,0,c	;volatile
   607                           
   608                           ;tlc5940.c: 122: _delay((unsigned long)((30)*(8000000/4000.0)));
   609  0001E2  0E4E               	movlw	78
   610  0001E4  6E11               	movwf	??_update_grayscale& (0+255),c
   611  0001E6  0EEB               	movlw	235
   612  0001E8                     u107:
   613  0001E8  2EE8               	decfsz	wreg,f,c
   614  0001EA  D7FE               	goto	u107
   615  0001EC  2E11               	decfsz	??_update_grayscale& (0+255),f,c
   616  0001EE  D7FC               	goto	u107
   617  0001F0  F000               	nop	
   618                           
   619                           ;tlc5940.c: 123: LATDbits.LD0 = 0;
   620  0001F2  908C               	bcf	3980,0,c	;volatile
   621                           
   622                           ;tlc5940.c: 124: T2CONbits.TMR2ON = 1;
   623  0001F4  84CA               	bsf	4042,2,c	;volatile
   624  0001F6  0012               	return	
   625  0001F8                     __end_of_update_grayscale:
   626                           	opt stack 0
   627                           pclatu	equ	0xFFB
   628                           pclath	equ	0xFFA
   629                           tblptru	equ	0xFF8
   630                           tblptrh	equ	0xFF7
   631                           tblptrl	equ	0xFF6
   632                           tablat	equ	0xFF5
   633                           prodh	equ	0xFF4
   634                           prodl	equ	0xFF3
   635                           intcon	equ	0xFF2
   636                           postinc0	equ	0xFEE
   637                           fsr0h	equ	0xFEA
   638                           fsr0l	equ	0xFE9
   639                           wreg	equ	0xFE8
   640                           fsr1h	equ	0xFE2
   641                           fsr1l	equ	0xFE1
   642                           indf2	equ	0xFDF
   643                           fsr2h	equ	0xFDA
   644                           fsr2l	equ	0xFD9
   645                           status	equ	0xFD8
   646                           
   647 ;; *************** function _spi_init *****************
   648 ;; Defined at:
   649 ;;		line 45 in file "main.c"
   650 ;; Parameters:    Size  Location     Type
   651 ;;		None
   652 ;; Auto vars:     Size  Location     Type
   653 ;;		None
   654 ;; Return value:  Size  Location     Type
   655 ;;		None               void
   656 ;; Registers used:
   657 ;;		None
   658 ;; Tracked objects:
   659 ;;		On entry : 0/0
   660 ;;		On exit  : 0/0
   661 ;;		Unchanged: 0/0
   662 ;; Data sizes:     COMRAM   BANK0   BANK1   BANK2   BANK3   BANK4   BANK5
   663 ;;      Params:         0       0       0       0       0       0       0
   664 ;;      Locals:         0       0       0       0       0       0       0
   665 ;;      Temps:          0       0       0       0       0       0       0
   666 ;;      Totals:         0       0       0       0       0       0       0
   667 ;;Total ram usage:        0 bytes
   668 ;; Hardware stack levels used:    1
   669 ;; Hardware stack levels required when called:    1
   670 ;; This function calls:
   671 ;;		Nothing
   672 ;; This function is called by:
   673 ;;		_main
   674 ;; This function uses a non-reentrant model
   675 ;;
   676                           
   677                           	psect	text2
   678  000402                     __ptext2:
   679                           	opt stack 0
   680  000402                     _spi_init:
   681                           	opt stack 29
   682                           
   683                           ;main.c: 47: SSPSTATbits.SMP = 0;
   684                           
   685                           ;incstack = 0
   686  000402  9EC7               	bcf	4039,7,c	;volatile
   687                           
   688                           ;main.c: 48: SSPSTATbits.CKE = 1;
   689  000404  8CC7               	bsf	4039,6,c	;volatile
   690                           
   691                           ;main.c: 49: SSPCON1bits.CKP = 0;
   692  000406  98C6               	bcf	4038,4,c	;volatile
   693                           
   694                           ;main.c: 50: SSPCON1bits.SSPM0 = 0;
   695  000408  90C6               	bcf	4038,0,c	;volatile
   696                           
   697                           ;main.c: 51: SSPCON1bits.SSPM1 = 0;
   698  00040A  92C6               	bcf	4038,1,c	;volatile
   699                           
   700                           ;main.c: 52: SSPCON1bits.SSPM2 = 0;
   701  00040C  94C6               	bcf	4038,2,c	;volatile
   702                           
   703                           ;main.c: 53: SSPCON1bits.SSPM3 = 0;
   704  00040E  96C6               	bcf	4038,3,c	;volatile
   705                           
   706                           ;main.c: 54: SSPCON1bits.SSPEN = 1;
   707  000410  8AC6               	bsf	4038,5,c	;volatile
   708                           
   709                           ;main.c: 56: TRISCbits.RC5 = 0;
   710  000412  9A94               	bcf	3988,5,c	;volatile
   711                           
   712                           ;main.c: 57: TRISCbits.RC3 = 0;
   713  000414  9694               	bcf	3988,3,c	;volatile
   714  000416  0012               	return	
   715  000418                     __end_of_spi_init:
   716                           	opt stack 0
   717                           pclatu	equ	0xFFB
   718                           pclath	equ	0xFFA
   719                           tblptru	equ	0xFF8
   720                           tblptrh	equ	0xFF7
   721                           tblptrl	equ	0xFF6
   722                           tablat	equ	0xFF5
   723                           prodh	equ	0xFF4
   724                           prodl	equ	0xFF3
   725                           intcon	equ	0xFF2
   726                           postinc0	equ	0xFEE
   727                           fsr0h	equ	0xFEA
   728                           fsr0l	equ	0xFE9
   729                           wreg	equ	0xFE8
   730                           fsr1h	equ	0xFE2
   731                           fsr1l	equ	0xFE1
   732                           indf2	equ	0xFDF
   733                           fsr2h	equ	0xFDA
   734                           fsr2l	equ	0xFD9
   735                           status	equ	0xFD8
   736                           
   737 ;; *************** function _set_channel *****************
   738 ;; Defined at:
   739 ;;		line 127 in file "tlc5940.c"
   740 ;; Parameters:    Size  Location     Type
   741 ;;  channel_numb    1    wreg     unsigned char 
   742 ;;  value           1   14[COMRAM] unsigned char 
   743 ;; Auto vars:     Size  Location     Type
   744 ;;  channel_numb    1   15[COMRAM] unsigned char 
   745 ;; Return value:  Size  Location     Type
   746 ;;		None               void
   747 ;; Registers used:
   748 ;;		wreg, fsr2l, fsr2h, status,2, status,0, prodl, prodh
   749 ;; Tracked objects:
   750 ;;		On entry : 0/0
   751 ;;		On exit  : 0/0
   752 ;;		Unchanged: 0/0
   753 ;; Data sizes:     COMRAM   BANK0   BANK1   BANK2   BANK3   BANK4   BANK5
   754 ;;      Params:         1       0       0       0       0       0       0
   755 ;;      Locals:         1       0       0       0       0       0       0
   756 ;;      Temps:          0       0       0       0       0       0       0
   757 ;;      Totals:         2       0       0       0       0       0       0
   758 ;;Total ram usage:        2 bytes
   759 ;; Hardware stack levels used:    1
   760 ;; Hardware stack levels required when called:    1
   761 ;; This function calls:
   762 ;;		Nothing
   763 ;; This function is called by:
   764 ;;		_main
   765 ;; This function uses a non-reentrant model
   766 ;;
   767                           
   768                           	psect	text3
   769  0003E8                     __ptext3:
   770                           	opt stack 0
   771  0003E8                     _set_channel:
   772                           	opt stack 29
   773                           
   774                           ;incstack = 0
   775                           ;set_channel@channel_number stored from wreg
   776  0003E8  6E10               	movwf	set_channel@channel_number,c
   777                           
   778                           ;tlc5940.c: 129: channel[channel_number] = value + 55;
   779  0003EA  5010               	movf	set_channel@channel_number,w,c
   780  0003EC  0D01               	mullw	1
   781  0003EE  0E16               	movlw	low _channel
   782  0003F0  24F3               	addwf	prodl,w,c
   783  0003F2  6ED9               	movwf	fsr2l,c
   784  0003F4  0E00               	movlw	high _channel
   785  0003F6  20F4               	addwfc	prodh,w,c
   786  0003F8  6EDA               	movwf	fsr2h,c
   787  0003FA  500F               	movf	set_channel@value,w,c
   788  0003FC  0F37               	addlw	55
   789  0003FE  6EDF               	movwf	indf2,c
   790  000400  0012               	return	
   791  000402                     __end_of_set_channel:
   792                           	opt stack 0
   793                           pclatu	equ	0xFFB
   794                           pclath	equ	0xFFA
   795                           tblptru	equ	0xFF8
   796                           tblptrh	equ	0xFF7
   797                           tblptrl	equ	0xFF6
   798                           tablat	equ	0xFF5
   799                           prodh	equ	0xFF4
   800                           prodl	equ	0xFF3
   801                           intcon	equ	0xFF2
   802                           postinc0	equ	0xFEE
   803                           fsr0h	equ	0xFEA
   804                           fsr0l	equ	0xFE9
   805                           wreg	equ	0xFE8
   806                           fsr1h	equ	0xFE2
   807                           fsr1l	equ	0xFE1
   808                           indf2	equ	0xFDF
   809                           fsr2h	equ	0xFDA
   810                           fsr2l	equ	0xFD9
   811                           status	equ	0xFD8
   812                           
   813 ;; *************** function _init_grayscale *****************
   814 ;; Defined at:
   815 ;;		line 41 in file "tlc5940.c"
   816 ;; Parameters:    Size  Location     Type
   817 ;;		None
   818 ;; Auto vars:     Size  Location     Type
   819 ;;		None
   820 ;; Return value:  Size  Location     Type
   821 ;;		None               void
   822 ;; Registers used:
   823 ;;		wreg, status,2, cstack
   824 ;; Tracked objects:
   825 ;;		On entry : 0/0
   826 ;;		On exit  : 0/0
   827 ;;		Unchanged: 0/0
   828 ;; Data sizes:     COMRAM   BANK0   BANK1   BANK2   BANK3   BANK4   BANK5
   829 ;;      Params:         0       0       0       0       0       0       0
   830 ;;      Locals:         0       0       0       0       0       0       0
   831 ;;      Temps:          1       0       0       0       0       0       0
   832 ;;      Totals:         1       0       0       0       0       0       0
   833 ;;Total ram usage:        1 bytes
   834 ;; Hardware stack levels used:    1
   835 ;; Hardware stack levels required when called:    2
   836 ;; This function calls:
   837 ;;		_serial_send_data
   838 ;; This function is called by:
   839 ;;		_main
   840 ;; This function uses a non-reentrant model
   841 ;;
   842                           
   843                           	psect	text4
   844  00001C                     __ptext4:
   845                           	opt stack 0
   846  00001C                     _init_grayscale:
   847                           	opt stack 28
   848                           
   849                           ;tlc5940.c: 43: _delay((unsigned long)((2)*(8000000/4000.0)));
   850                           
   851                           ;incstack = 0
   852  00001C  0E06               	movlw	6
   853  00001E  6E11               	movwf	??_init_grayscale& (0+255),c
   854  000020  0E30               	movlw	48
   855  000022                     u117:
   856  000022  2EE8               	decfsz	wreg,f,c
   857  000024  D7FE               	goto	u117
   858  000026  2E11               	decfsz	??_init_grayscale& (0+255),f,c
   859  000028  D7FC               	goto	u117
   860  00002A  D000               	nop2	
   861                           
   862                           ;tlc5940.c: 45: T2CONbits.TMR2ON = 0;
   863  00002C  94CA               	bcf	4042,2,c	;volatile
   864                           
   865                           ;tlc5940.c: 46: LATDbits.LD1 = 0;
   866  00002E  928C               	bcf	3980,1,c	;volatile
   867                           
   868                           ;tlc5940.c: 47: LATDbits.LD0 = 0;
   869  000030  908C               	bcf	3980,0,c	;volatile
   870                           
   871                           ;tlc5940.c: 48: LATDbits.LD2 = 0;
   872  000032  948C               	bcf	3980,2,c	;volatile
   873                           
   874                           ;tlc5940.c: 50: channel[0] = 235;
   875  000034  0EEB               	movlw	235
   876  000036  6E16               	movwf	_channel,c
   877                           
   878                           ;tlc5940.c: 51: channel[1] = 0;
   879  000038  0E00               	movlw	0
   880  00003A  6E17               	movwf	_channel+1,c
   881                           
   882                           ;tlc5940.c: 52: channel[2] = 0;
   883  00003C  0E00               	movlw	0
   884  00003E  6E18               	movwf	_channel+2,c
   885                           
   886                           ;tlc5940.c: 53: channel[3] = 0;
   887  000040  0E00               	movlw	0
   888  000042  6E19               	movwf	_channel+3,c
   889                           
   890                           ;tlc5940.c: 54: channel[4] = 0;
   891  000044  0E00               	movlw	0
   892  000046  6E1A               	movwf	_channel+4,c
   893                           
   894                           ;tlc5940.c: 55: channel[5] = 0;
   895  000048  0E00               	movlw	0
   896  00004A  6E1B               	movwf	_channel+5,c
   897                           
   898                           ;tlc5940.c: 56: channel[6] = 0;
   899  00004C  0E00               	movlw	0
   900  00004E  6E1C               	movwf	_channel+6,c
   901                           
   902                           ;tlc5940.c: 57: channel[7] = 0;
   903  000050  0E00               	movlw	0
   904  000052  6E1D               	movwf	_channel+7,c
   905                           
   906                           ;tlc5940.c: 58: channel[8] = 0;
   907  000054  0E00               	movlw	0
   908  000056  6E1E               	movwf	_channel+8,c
   909                           
   910                           ;tlc5940.c: 59: channel[9] = 0;
   911  000058  0E00               	movlw	0
   912  00005A  6E1F               	movwf	_channel+9,c
   913                           
   914                           ;tlc5940.c: 60: channel[10] = 0;
   915  00005C  0E00               	movlw	0
   916  00005E  6E20               	movwf	_channel+10,c
   917                           
   918                           ;tlc5940.c: 61: channel[11] = 0;
   919  000060  0E00               	movlw	0
   920  000062  6E21               	movwf	_channel+11,c
   921                           
   922                           ;tlc5940.c: 62: channel[12] = 0;
   923  000064  0E00               	movlw	0
   924  000066  6E22               	movwf	_channel+12,c
   925                           
   926                           ;tlc5940.c: 63: channel[13] = 0;
   927  000068  0E00               	movlw	0
   928  00006A  6E23               	movwf	_channel+13,c
   929                           
   930                           ;tlc5940.c: 64: channel[14] = 0;
   931  00006C  0E00               	movlw	0
   932  00006E  6E24               	movwf	_channel+14,c
   933                           
   934                           ;tlc5940.c: 65: channel[15] = 235;
   935  000070  0EEB               	movlw	235
   936  000072  6E25               	movwf	_channel+15,c
   937                           
   938                           ;tlc5940.c: 68: serial_send_data(0b00000000);
   939  000074  0E00               	movlw	0
   940  000076  EC0C  F002         	call	_serial_send_data
   941                           
   942                           ;tlc5940.c: 69: serial_send_data(0b00000000);
   943  00007A  0E00               	movlw	0
   944  00007C  EC0C  F002         	call	_serial_send_data
   945                           
   946                           ;tlc5940.c: 70: serial_send_data(0b00000000);
   947  000080  0E00               	movlw	0
   948  000082  EC0C  F002         	call	_serial_send_data
   949                           
   950                           ;tlc5940.c: 71: serial_send_data(0b00000000);
   951  000086  0E00               	movlw	0
   952  000088  EC0C  F002         	call	_serial_send_data
   953                           
   954                           ;tlc5940.c: 72: serial_send_data(0b00000000);
   955  00008C  0E00               	movlw	0
   956  00008E  EC0C  F002         	call	_serial_send_data
   957                           
   958                           ;tlc5940.c: 73: serial_send_data(0b00000000);
   959  000092  0E00               	movlw	0
   960  000094  EC0C  F002         	call	_serial_send_data
   961                           
   962                           ;tlc5940.c: 74: serial_send_data(0b00000000);
   963  000098  0E00               	movlw	0
   964  00009A  EC0C  F002         	call	_serial_send_data
   965                           
   966                           ;tlc5940.c: 75: serial_send_data(0b00000000);
   967  00009E  0E00               	movlw	0
   968  0000A0  EC0C  F002         	call	_serial_send_data
   969                           
   970                           ;tlc5940.c: 76: serial_send_data(0b00000000);
   971  0000A4  0E00               	movlw	0
   972  0000A6  EC0C  F002         	call	_serial_send_data
   973                           
   974                           ;tlc5940.c: 77: serial_send_data(0b00000000);
   975  0000AA  0E00               	movlw	0
   976  0000AC  EC0C  F002         	call	_serial_send_data
   977                           
   978                           ;tlc5940.c: 78: serial_send_data(0b00000000);
   979  0000B0  0E00               	movlw	0
   980  0000B2  EC0C  F002         	call	_serial_send_data
   981                           
   982                           ;tlc5940.c: 79: serial_send_data(0b00000000);
   983  0000B6  0E00               	movlw	0
   984  0000B8  EC0C  F002         	call	_serial_send_data
   985                           
   986                           ;tlc5940.c: 80: serial_send_data(0b00000000);
   987  0000BC  0E00               	movlw	0
   988  0000BE  EC0C  F002         	call	_serial_send_data
   989                           
   990                           ;tlc5940.c: 81: serial_send_data(0b00000000);
   991  0000C2  0E00               	movlw	0
   992  0000C4  EC0C  F002         	call	_serial_send_data
   993                           
   994                           ;tlc5940.c: 82: serial_send_data(0b00000000);
   995  0000C8  0E00               	movlw	0
   996  0000CA  EC0C  F002         	call	_serial_send_data
   997                           
   998                           ;tlc5940.c: 83: serial_send_data(0b00000000);
   999  0000CE  0E00               	movlw	0
  1000  0000D0  EC0C  F002         	call	_serial_send_data
  1001                           
  1002                           ;tlc5940.c: 84: serial_send_data(0b00000000);
  1003  0000D4  0E00               	movlw	0
  1004  0000D6  EC0C  F002         	call	_serial_send_data
  1005                           
  1006                           ;tlc5940.c: 85: serial_send_data(0b00000000);
  1007  0000DA  0E00               	movlw	0
  1008  0000DC  EC0C  F002         	call	_serial_send_data
  1009                           
  1010                           ;tlc5940.c: 86: serial_send_data(0b00000000);
  1011  0000E0  0E00               	movlw	0
  1012  0000E2  EC0C  F002         	call	_serial_send_data
  1013                           
  1014                           ;tlc5940.c: 87: serial_send_data(0b00000000);
  1015  0000E6  0E00               	movlw	0
  1016  0000E8  EC0C  F002         	call	_serial_send_data
  1017                           
  1018                           ;tlc5940.c: 88: serial_send_data(0b00000000);
  1019  0000EC  0E00               	movlw	0
  1020  0000EE  EC0C  F002         	call	_serial_send_data
  1021                           
  1022                           ;tlc5940.c: 89: serial_send_data(0b00000000);
  1023  0000F2  0E00               	movlw	0
  1024  0000F4  EC0C  F002         	call	_serial_send_data
  1025                           
  1026                           ;tlc5940.c: 90: serial_send_data(0b00000000);
  1027  0000F8  0E00               	movlw	0
  1028  0000FA  EC0C  F002         	call	_serial_send_data
  1029                           
  1030                           ;tlc5940.c: 91: serial_send_data(0b00000000);
  1031  0000FE  0E00               	movlw	0
  1032  000100  EC0C  F002         	call	_serial_send_data
  1033                           
  1034                           ;tlc5940.c: 93: _delay((unsigned long)((2)*(8000000/4000.0)));
  1035  000104  0E06               	movlw	6
  1036  000106  6E11               	movwf	??_init_grayscale& (0+255),c
  1037  000108  0E30               	movlw	48
  1038  00010A                     u127:
  1039  00010A  2EE8               	decfsz	wreg,f,c
  1040  00010C  D7FE               	goto	u127
  1041  00010E  2E11               	decfsz	??_init_grayscale& (0+255),f,c
  1042  000110  D7FC               	goto	u127
  1043  000112  D000               	nop2	
  1044                           
  1045                           ;tlc5940.c: 94: LATDbits.LD0 = 1;
  1046  000114  808C               	bsf	3980,0,c	;volatile
  1047                           
  1048                           ;tlc5940.c: 95: _delay((unsigned long)((30)*(8000000/4000.0)));
  1049  000116  0E4E               	movlw	78
  1050  000118  6E11               	movwf	??_init_grayscale& (0+255),c
  1051  00011A  0EEB               	movlw	235
  1052  00011C                     u137:
  1053  00011C  2EE8               	decfsz	wreg,f,c
  1054  00011E  D7FE               	goto	u137
  1055  000120  2E11               	decfsz	??_init_grayscale& (0+255),f,c
  1056  000122  D7FC               	goto	u137
  1057  000124  F000               	nop	
  1058                           
  1059                           ;tlc5940.c: 96: LATDbits.LD0 = 0;
  1060  000126  908C               	bcf	3980,0,c	;volatile
  1061                           
  1062                           ;tlc5940.c: 98: serial_send_data(0b10000000);
  1063  000128  0E80               	movlw	128
  1064  00012A  EC0C  F002         	call	_serial_send_data
  1065  00012E  0012               	return	
  1066  000130                     __end_of_init_grayscale:
  1067                           	opt stack 0
  1068                           pclatu	equ	0xFFB
  1069                           pclath	equ	0xFFA
  1070                           tblptru	equ	0xFF8
  1071                           tblptrh	equ	0xFF7
  1072                           tblptrl	equ	0xFF6
  1073                           tablat	equ	0xFF5
  1074                           prodh	equ	0xFF4
  1075                           prodl	equ	0xFF3
  1076                           intcon	equ	0xFF2
  1077                           postinc0	equ	0xFEE
  1078                           fsr0h	equ	0xFEA
  1079                           fsr0l	equ	0xFE9
  1080                           wreg	equ	0xFE8
  1081                           fsr1h	equ	0xFE2
  1082                           fsr1l	equ	0xFE1
  1083                           indf2	equ	0xFDF
  1084                           fsr2h	equ	0xFDA
  1085                           fsr2l	equ	0xFD9
  1086                           status	equ	0xFD8
  1087                           
  1088 ;; *************** function _init_dot_correction *****************
  1089 ;; Defined at:
  1090 ;;		line 16 in file "tlc5940.c"
  1091 ;; Parameters:    Size  Location     Type
  1092 ;;		None
  1093 ;; Auto vars:     Size  Location     Type
  1094 ;;		None
  1095 ;; Return value:  Size  Location     Type
  1096 ;;		None               void
  1097 ;; Registers used:
  1098 ;;		wreg, status,2, cstack
  1099 ;; Tracked objects:
  1100 ;;		On entry : 0/0
  1101 ;;		On exit  : 0/0
  1102 ;;		Unchanged: 0/0
  1103 ;; Data sizes:     COMRAM   BANK0   BANK1   BANK2   BANK3   BANK4   BANK5
  1104 ;;      Params:         0       0       0       0       0       0       0
  1105 ;;      Locals:         0       0       0       0       0       0       0
  1106 ;;      Temps:          1       0       0       0       0       0       0
  1107 ;;      Totals:         1       0       0       0       0       0       0
  1108 ;;Total ram usage:        1 bytes
  1109 ;; Hardware stack levels used:    1
  1110 ;; Hardware stack levels required when called:    2
  1111 ;; This function calls:
  1112 ;;		_serial_send_data
  1113 ;; This function is called by:
  1114 ;;		_main
  1115 ;; This function uses a non-reentrant model
  1116 ;;
  1117                           
  1118                           	psect	text5
  1119  00031A                     __ptext5:
  1120                           	opt stack 0
  1121  00031A                     _init_dot_correction:
  1122                           	opt stack 28
  1123                           
  1124                           ;tlc5940.c: 18: LATDbits.LD1 = 1;
  1125                           
  1126                           ;incstack = 0
  1127  00031A  828C               	bsf	3980,1,c	;volatile
  1128                           
  1129                           ;tlc5940.c: 19: LATDbits.LD0 = 0;
  1130  00031C  908C               	bcf	3980,0,c	;volatile
  1131                           
  1132                           ;tlc5940.c: 20: _delay((unsigned long)((2)*(8000000/4000.0)));
  1133  00031E  0E06               	movlw	6
  1134  000320  6E11               	movwf	??_init_dot_correction& (0+255),c
  1135  000322  0E30               	movlw	48
  1136  000324                     u147:
  1137  000324  2EE8               	decfsz	wreg,f,c
  1138  000326  D7FE               	goto	u147
  1139  000328  2E11               	decfsz	??_init_dot_correction& (0+255),f,c
  1140  00032A  D7FC               	goto	u147
  1141  00032C  D000               	nop2	
  1142                           
  1143                           ;tlc5940.c: 22: serial_send_data(0b11111111);
  1144  00032E  0EFF               	movlw	255
  1145  000330  EC0C  F002         	call	_serial_send_data
  1146                           
  1147                           ;tlc5940.c: 23: serial_send_data(0b11111111);
  1148  000334  0EFF               	movlw	255
  1149  000336  EC0C  F002         	call	_serial_send_data
  1150                           
  1151                           ;tlc5940.c: 24: serial_send_data(0b11111111);
  1152  00033A  0EFF               	movlw	255
  1153  00033C  EC0C  F002         	call	_serial_send_data
  1154                           
  1155                           ;tlc5940.c: 25: serial_send_data(0b11111111);
  1156  000340  0EFF               	movlw	255
  1157  000342  EC0C  F002         	call	_serial_send_data
  1158                           
  1159                           ;tlc5940.c: 26: serial_send_data(0b11111111);
  1160  000346  0EFF               	movlw	255
  1161  000348  EC0C  F002         	call	_serial_send_data
  1162                           
  1163                           ;tlc5940.c: 27: serial_send_data(0b11111111);
  1164  00034C  0EFF               	movlw	255
  1165  00034E  EC0C  F002         	call	_serial_send_data
  1166                           
  1167                           ;tlc5940.c: 28: serial_send_data(0b11111111);
  1168  000352  0EFF               	movlw	255
  1169  000354  EC0C  F002         	call	_serial_send_data
  1170                           
  1171                           ;tlc5940.c: 29: serial_send_data(0b11111111);
  1172  000358  0EFF               	movlw	255
  1173  00035A  EC0C  F002         	call	_serial_send_data
  1174                           
  1175                           ;tlc5940.c: 30: serial_send_data(0b11111111);
  1176  00035E  0EFF               	movlw	255
  1177  000360  EC0C  F002         	call	_serial_send_data
  1178                           
  1179                           ;tlc5940.c: 31: serial_send_data(0b11111111);
  1180  000364  0EFF               	movlw	255
  1181  000366  EC0C  F002         	call	_serial_send_data
  1182                           
  1183                           ;tlc5940.c: 32: serial_send_data(0b11111111);
  1184  00036A  0EFF               	movlw	255
  1185  00036C  EC0C  F002         	call	_serial_send_data
  1186                           
  1187                           ;tlc5940.c: 33: serial_send_data(0b11111111);
  1188  000370  0EFF               	movlw	255
  1189  000372  EC0C  F002         	call	_serial_send_data
  1190                           
  1191                           ;tlc5940.c: 35: _delay((unsigned long)((2)*(8000000/4000.0)));
  1192  000376  0E06               	movlw	6
  1193  000378  6E11               	movwf	??_init_dot_correction& (0+255),c
  1194  00037A  0E30               	movlw	48
  1195  00037C                     u157:
  1196  00037C  2EE8               	decfsz	wreg,f,c
  1197  00037E  D7FE               	goto	u157
  1198  000380  2E11               	decfsz	??_init_dot_correction& (0+255),f,c
  1199  000382  D7FC               	goto	u157
  1200  000384  D000               	nop2	
  1201                           
  1202                           ;tlc5940.c: 36: LATDbits.LD0 = 1;
  1203  000386  808C               	bsf	3980,0,c	;volatile
  1204                           
  1205                           ;tlc5940.c: 37: _delay((unsigned long)((30)*(8000000/4000.0)));
  1206  000388  0E4E               	movlw	78
  1207  00038A  6E11               	movwf	??_init_dot_correction& (0+255),c
  1208  00038C  0EEB               	movlw	235
  1209  00038E                     u167:
  1210  00038E  2EE8               	decfsz	wreg,f,c
  1211  000390  D7FE               	goto	u167
  1212  000392  2E11               	decfsz	??_init_dot_correction& (0+255),f,c
  1213  000394  D7FC               	goto	u167
  1214  000396  F000               	nop	
  1215                           
  1216                           ;tlc5940.c: 38: LATDbits.LD0 = 0;
  1217  000398  908C               	bcf	3980,0,c	;volatile
  1218  00039A  0012               	return	
  1219  00039C                     __end_of_init_dot_correction:
  1220                           	opt stack 0
  1221                           pclatu	equ	0xFFB
  1222                           pclath	equ	0xFFA
  1223                           tblptru	equ	0xFF8
  1224                           tblptrh	equ	0xFF7
  1225                           tblptrl	equ	0xFF6
  1226                           tablat	equ	0xFF5
  1227                           prodh	equ	0xFF4
  1228                           prodl	equ	0xFF3
  1229                           intcon	equ	0xFF2
  1230                           postinc0	equ	0xFEE
  1231                           fsr0h	equ	0xFEA
  1232                           fsr0l	equ	0xFE9
  1233                           wreg	equ	0xFE8
  1234                           fsr1h	equ	0xFE2
  1235                           fsr1l	equ	0xFE1
  1236                           indf2	equ	0xFDF
  1237                           fsr2h	equ	0xFDA
  1238                           fsr2l	equ	0xFD9
  1239                           status	equ	0xFD8
  1240                           
  1241 ;; *************** function _serial_send_data *****************
  1242 ;; Defined at:
  1243 ;;		line 10 in file "tlc5940.c"
  1244 ;; Parameters:    Size  Location     Type
  1245 ;;  data            1    wreg     unsigned char 
  1246 ;; Auto vars:     Size  Location     Type
  1247 ;;  data            1   15[COMRAM] unsigned char 
  1248 ;; Return value:  Size  Location     Type
  1249 ;;		None               void
  1250 ;; Registers used:
  1251 ;;		wreg, status,2, cstack
  1252 ;; Tracked objects:
  1253 ;;		On entry : 0/0
  1254 ;;		On exit  : 0/0
  1255 ;;		Unchanged: 0/0
  1256 ;; Data sizes:     COMRAM   BANK0   BANK1   BANK2   BANK3   BANK4   BANK5
  1257 ;;      Params:         0       0       0       0       0       0       0
  1258 ;;      Locals:         1       0       0       0       0       0       0
  1259 ;;      Temps:          1       0       0       0       0       0       0
  1260 ;;      Totals:         2       0       0       0       0       0       0
  1261 ;;Total ram usage:        2 bytes
  1262 ;; Hardware stack levels used:    1
  1263 ;; Hardware stack levels required when called:    1
  1264 ;; This function calls:
  1265 ;;		Nothing
  1266 ;; This function is called by:
  1267 ;;		_init_dot_correction
  1268 ;;		_init_grayscale
  1269 ;;		_update_grayscale
  1270 ;; This function uses a non-reentrant model
  1271 ;;
  1272                           
  1273                           	psect	text6
  1274  000418                     __ptext6:
  1275                           	opt stack 0
  1276  000418                     _serial_send_data:
  1277                           	opt stack 28
  1278                           
  1279                           ;incstack = 0
  1280                           ;serial_send_data@data stored from wreg
  1281  000418  6E10               	movwf	serial_send_data@data,c
  1282                           
  1283                           ;tlc5940.c: 12: SSPBUF = data;
  1284  00041A  C010  FFC9         	movff	serial_send_data@data,4041	;volatile
  1285                           
  1286                           ;tlc5940.c: 13: _delay((unsigned long)((1)*(8000000/4000.0)));
  1287  00041E  0E03               	movlw	3
  1288  000420  6E0F               	movwf	??_serial_send_data& (0+255),c
  1289  000422  0E98               	movlw	152
  1290  000424                     u177:
  1291  000424  2EE8               	decfsz	wreg,f,c
  1292  000426  D7FE               	goto	u177
  1293  000428  2E0F               	decfsz	??_serial_send_data& (0+255),f,c
  1294  00042A  D7FC               	goto	u177
  1295  00042C  0012               	return	
  1296  00042E                     __end_of_serial_send_data:
  1297                           	opt stack 0
  1298                           pclatu	equ	0xFFB
  1299                           pclath	equ	0xFFA
  1300                           tblptru	equ	0xFF8
  1301                           tblptrh	equ	0xFF7
  1302                           tblptrl	equ	0xFF6
  1303                           tablat	equ	0xFF5
  1304                           prodh	equ	0xFF4
  1305                           prodl	equ	0xFF3
  1306                           intcon	equ	0xFF2
  1307                           postinc0	equ	0xFEE
  1308                           fsr0h	equ	0xFEA
  1309                           fsr0l	equ	0xFE9
  1310                           wreg	equ	0xFE8
  1311                           fsr1h	equ	0xFE2
  1312                           fsr1l	equ	0xFE1
  1313                           indf2	equ	0xFDF
  1314                           fsr2h	equ	0xFDA
  1315                           fsr2l	equ	0xFD9
  1316                           status	equ	0xFD8
  1317                           
  1318 ;; *************** function _delay_sec *****************
  1319 ;; Defined at:
  1320 ;;		line 21 in file "main.c"
  1321 ;; Parameters:    Size  Location     Type
  1322 ;;		None
  1323 ;; Auto vars:     Size  Location     Type
  1324 ;;  i               2   15[COMRAM] int 
  1325 ;; Return value:  Size  Location     Type
  1326 ;;		None               void
  1327 ;; Registers used:
  1328 ;;		wreg, status,2, status,0
  1329 ;; Tracked objects:
  1330 ;;		On entry : 0/0
  1331 ;;		On exit  : 0/0
  1332 ;;		Unchanged: 0/0
  1333 ;; Data sizes:     COMRAM   BANK0   BANK1   BANK2   BANK3   BANK4   BANK5
  1334 ;;      Params:         0       0       0       0       0       0       0
  1335 ;;      Locals:         2       0       0       0       0       0       0
  1336 ;;      Temps:          1       0       0       0       0       0       0
  1337 ;;      Totals:         3       0       0       0       0       0       0
  1338 ;;Total ram usage:        3 bytes
  1339 ;; Hardware stack levels used:    1
  1340 ;; Hardware stack levels required when called:    1
  1341 ;; This function calls:
  1342 ;;		Nothing
  1343 ;; This function is called by:
  1344 ;;		_main
  1345 ;; This function uses a non-reentrant model
  1346 ;;
  1347                           
  1348                           	psect	text7
  1349  00039C                     __ptext7:
  1350                           	opt stack 0
  1351  00039C                     _delay_sec:
  1352                           	opt stack 29
  1353                           
  1354                           ;main.c: 23: for(int i = 0; i < 50; i++)
  1355                           
  1356                           ;incstack = 0
  1357  00039C  0E00               	movlw	0
  1358  00039E  6E11               	movwf	delay_sec@i+1,c
  1359  0003A0  0E00               	movlw	0
  1360  0003A2  6E10               	movwf	delay_sec@i,c
  1361  0003A4  5011               	movf	delay_sec@i+1,w,c
  1362  0003A6  0A80               	xorlw	128
  1363  0003A8  0F80               	addlw	-128
  1364  0003AA  0E32               	movlw	50
  1365  0003AC  B4D8               	btfsc	status,2,c
  1366  0003AE  5C10               	subwf	delay_sec@i,w,c
  1367  0003B0  B0D8               	btfsc	status,0,c
  1368  0003B2  D00B               	goto	l88
  1369                           
  1370                           ;main.c: 24: {
  1371                           ;main.c: 25: _delay((unsigned long)((10)*(8000000/4000.0)));
  1372  0003B4  0E1A               	movlw	26
  1373  0003B6  6E0F               	movwf	??_delay_sec& (0+255),c
  1374  0003B8  0EF8               	movlw	248
  1375  0003BA                     u187:
  1376  0003BA  2EE8               	decfsz	wreg,f,c
  1377  0003BC  D7FE               	goto	u187
  1378  0003BE  2E0F               	decfsz	??_delay_sec& (0+255),f,c
  1379  0003C0  D7FC               	goto	u187
  1380  0003C2  D000               	nop2	
  1381  0003C4  4A10               	infsnz	delay_sec@i,f,c
  1382  0003C6  2A11               	incf	delay_sec@i+1,f,c
  1383  0003C8  D7ED               	goto	L2
  1384  0003CA                     l88:
  1385  0003CA  0012               	return	
  1386  0003CC                     __end_of_delay_sec:
  1387                           	opt stack 0
  1388                           pclatu	equ	0xFFB
  1389                           pclath	equ	0xFFA
  1390                           tblptru	equ	0xFF8
  1391                           tblptrh	equ	0xFF7
  1392                           tblptrl	equ	0xFF6
  1393                           tablat	equ	0xFF5
  1394                           prodh	equ	0xFF4
  1395                           prodl	equ	0xFF3
  1396                           intcon	equ	0xFF2
  1397                           postinc0	equ	0xFEE
  1398                           fsr0h	equ	0xFEA
  1399                           fsr0l	equ	0xFE9
  1400                           wreg	equ	0xFE8
  1401                           fsr1h	equ	0xFE2
  1402                           fsr1l	equ	0xFE1
  1403                           indf2	equ	0xFDF
  1404                           fsr2h	equ	0xFDA
  1405                           fsr2l	equ	0xFD9
  1406                           status	equ	0xFD8
  1407                           
  1408 ;; *************** function _TMR2_init *****************
  1409 ;; Defined at:
  1410 ;;		line 60 in file "main.c"
  1411 ;; Parameters:    Size  Location     Type
  1412 ;;		None
  1413 ;; Auto vars:     Size  Location     Type
  1414 ;;		None
  1415 ;; Return value:  Size  Location     Type
  1416 ;;		None               void
  1417 ;; Registers used:
  1418 ;;		wreg, status,2
  1419 ;; Tracked objects:
  1420 ;;		On entry : 0/0
  1421 ;;		On exit  : 0/0
  1422 ;;		Unchanged: 0/0
  1423 ;; Data sizes:     COMRAM   BANK0   BANK1   BANK2   BANK3   BANK4   BANK5
  1424 ;;      Params:         0       0       0       0       0       0       0
  1425 ;;      Locals:         0       0       0       0       0       0       0
  1426 ;;      Temps:          0       0       0       0       0       0       0
  1427 ;;      Totals:         0       0       0       0       0       0       0
  1428 ;;Total ram usage:        0 bytes
  1429 ;; Hardware stack levels used:    1
  1430 ;; Hardware stack levels required when called:    1
  1431 ;; This function calls:
  1432 ;;		Nothing
  1433 ;; This function is called by:
  1434 ;;		_main
  1435 ;; This function uses a non-reentrant model
  1436 ;;
  1437                           
  1438                           	psect	text8
  1439  0003CC                     __ptext8:
  1440                           	opt stack 0
  1441  0003CC                     _TMR2_init:
  1442                           	opt stack 29
  1443                           
  1444                           ;main.c: 63: PR2 = 0b00000100 ;
  1445                           
  1446                           ;incstack = 0
  1447  0003CC  0E04               	movlw	4
  1448  0003CE  6ECB               	movwf	4043,c	;volatile
  1449                           
  1450                           ;main.c: 64: T2CON = 0b01000101 ;
  1451  0003D0  0E45               	movlw	69
  1452  0003D2  6ECA               	movwf	4042,c	;volatile
  1453                           
  1454                           ;main.c: 65: CCPR1L = 0b00000010 ;
  1455  0003D4  0E02               	movlw	2
  1456  0003D6  6EBE               	movwf	4030,c	;volatile
  1457                           
  1458                           ;main.c: 66: CCP1CON = 0b00101100 ;
  1459  0003D8  0E2C               	movlw	44
  1460  0003DA  6EBD               	movwf	4029,c	;volatile
  1461                           
  1462                           ;main.c: 67: TRISC = 0b00000000;
  1463  0003DC  0E00               	movlw	0
  1464  0003DE  6E94               	movwf	3988,c	;volatile
  1465                           
  1466                           ;main.c: 68: PORTC = 0b00000000;
  1467  0003E0  0E00               	movlw	0
  1468  0003E2  6E82               	movwf	3970,c	;volatile
  1469                           
  1470                           ;main.c: 69: T2CONbits.TMR2ON = 0;
  1471  0003E4  94CA               	bcf	4042,2,c	;volatile
  1472  0003E6  0012               	return	
  1473  0003E8                     __end_of_TMR2_init:
  1474                           	opt stack 0
  1475                           pclatu	equ	0xFFB
  1476                           pclath	equ	0xFFA
  1477                           tblptru	equ	0xFF8
  1478                           tblptrh	equ	0xFF7
  1479                           tblptrl	equ	0xFF6
  1480                           tablat	equ	0xFF5
  1481                           prodh	equ	0xFF4
  1482                           prodl	equ	0xFF3
  1483                           intcon	equ	0xFF2
  1484                           postinc0	equ	0xFEE
  1485                           fsr0h	equ	0xFEA
  1486                           fsr0l	equ	0xFE9
  1487                           wreg	equ	0xFE8
  1488                           fsr1h	equ	0xFE2
  1489                           fsr1l	equ	0xFE1
  1490                           indf2	equ	0xFDF
  1491                           fsr2h	equ	0xFDA
  1492                           fsr2l	equ	0xFD9
  1493                           status	equ	0xFD8
  1494                           
  1495 ;; *************** function _blank_pulse *****************
  1496 ;; Defined at:
  1497 ;;		line 29 in file "main.c"
  1498 ;; Parameters:    Size  Location     Type
  1499 ;;		None
  1500 ;; Auto vars:     Size  Location     Type
  1501 ;;		None
  1502 ;; Return value:  Size  Location     Type
  1503 ;;		None               void
  1504 ;; Registers used:
  1505 ;;		wreg, status,2, status,0
  1506 ;; Tracked objects:
  1507 ;;		On entry : 0/0
  1508 ;;		On exit  : 0/0
  1509 ;;		Unchanged: 0/0
  1510 ;; Data sizes:     COMRAM   BANK0   BANK1   BANK2   BANK3   BANK4   BANK5
  1511 ;;      Params:         0       0       0       0       0       0       0
  1512 ;;      Locals:         0       0       0       0       0       0       0
  1513 ;;      Temps:         14       0       0       0       0       0       0
  1514 ;;      Totals:        14       0       0       0       0       0       0
  1515 ;;Total ram usage:       14 bytes
  1516 ;; Hardware stack levels used:    1
  1517 ;; This function calls:
  1518 ;;		Nothing
  1519 ;; This function is called by:
  1520 ;;		Interrupt level 2
  1521 ;; This function uses a non-reentrant model
  1522 ;;
  1523                           
  1524                           	psect	intcode
  1525  000008                     __pintcode:
  1526                           	opt stack 0
  1527  000008                     _blank_pulse:
  1528                           	opt stack 28
  1529                           
  1530                           ;incstack = 0
  1531  000008  CFFA F001          	movff	pclath,??_blank_pulse
  1532  00000C  CFFB F002          	movff	pclatu,??_blank_pulse+1
  1533  000010  CFE9 F003          	movff	fsr0l,??_blank_pulse+2
  1534  000014  EDFC  F000         	call	int_func,f	;refresh shadow registers
  1535                           pclatu	equ	0xFFB
  1536                           pclath	equ	0xFFA
  1537                           tblptru	equ	0xFF8
  1538                           tblptrh	equ	0xFF7
  1539                           tblptrl	equ	0xFF6
  1540                           tablat	equ	0xFF5
  1541                           prodh	equ	0xFF4
  1542                           prodl	equ	0xFF3
  1543                           intcon	equ	0xFF2
  1544                           postinc0	equ	0xFEE
  1545                           fsr0h	equ	0xFEA
  1546                           fsr0l	equ	0xFE9
  1547                           wreg	equ	0xFE8
  1548                           fsr1h	equ	0xFE2
  1549                           fsr1l	equ	0xFE1
  1550                           indf2	equ	0xFDF
  1551                           fsr2h	equ	0xFDA
  1552                           fsr2l	equ	0xFD9
  1553                           status	equ	0xFD8
  1554                           pclatu	equ	0xFFB
  1555                           pclath	equ	0xFFA
  1556                           tblptru	equ	0xFF8
  1557                           tblptrh	equ	0xFF7
  1558                           tblptrl	equ	0xFF6
  1559                           tablat	equ	0xFF5
  1560                           prodh	equ	0xFF4
  1561                           prodl	equ	0xFF3
  1562                           intcon	equ	0xFF2
  1563                           postinc0	equ	0xFEE
  1564                           fsr0h	equ	0xFEA
  1565                           fsr0l	equ	0xFE9
  1566                           wreg	equ	0xFE8
  1567                           fsr1h	equ	0xFE2
  1568                           fsr1l	equ	0xFE1
  1569                           indf2	equ	0xFDF
  1570                           fsr2h	equ	0xFDA
  1571                           fsr2l	equ	0xFD9
  1572                           status	equ	0xFD8
  1573                           
  1574                           	psect	rparam
  1575  0000                     pclatu	equ	0xFFB
  1576                           pclath	equ	0xFFA
  1577                           tblptru	equ	0xFF8
  1578                           tblptrh	equ	0xFF7
  1579                           tblptrl	equ	0xFF6
  1580                           tablat	equ	0xFF5
  1581                           prodh	equ	0xFF4
  1582                           prodl	equ	0xFF3
  1583                           intcon	equ	0xFF2
  1584                           postinc0	equ	0xFEE
  1585                           fsr0h	equ	0xFEA
  1586                           fsr0l	equ	0xFE9
  1587                           wreg	equ	0xFE8
  1588                           fsr1h	equ	0xFE2
  1589                           fsr1l	equ	0xFE1
  1590                           indf2	equ	0xFDF
  1591                           fsr2h	equ	0xFDA
  1592                           fsr2l	equ	0xFD9
  1593                           status	equ	0xFD8


Data Sizes:
    Strings     0
    Constant    0
    Data        0
    BSS         18
    Persistent  0
    Stack       0

Auto Spaces:
    Space          Size  Autos    Used
    COMRAM          127     21      39
    BANK0           128      0       0
    BANK1           256      0       0
    BANK2           256      0       0
    BANK3           256      0       0
    BANK4           256      0       0
    BANK5           256      0       0

Pointer List with Targets:

    None.

Critical Paths under _main in COMRAM

    _main->_update_grayscale
    _update_grayscale->_serial_send_data
    _init_grayscale->_serial_send_data
    _init_dot_correction->_serial_send_data

Critical Paths under _blank_pulse in COMRAM

    None.

Critical Paths under _main in BANK0

    None.

Critical Paths under _blank_pulse in BANK0

    None.

Critical Paths under _main in BANK1

    None.

Critical Paths under _blank_pulse in BANK1

    None.

Critical Paths under _main in BANK2

    None.

Critical Paths under _blank_pulse in BANK2

    None.

Critical Paths under _main in BANK3

    None.

Critical Paths under _blank_pulse in BANK3

    None.

Critical Paths under _main in BANK4

    None.

Critical Paths under _blank_pulse in BANK4

    None.

Critical Paths under _main in BANK5

    None.

Critical Paths under _blank_pulse in BANK5

    None.

Call Graph Tables:

 ---------------------------------------------------------------------------------
 (Depth) Function   	        Calls       Base Space   Used Autos Params    Refs
 ---------------------------------------------------------------------------------
 (0) _main                                                 0     0      0     293
                          _TMR2_init
                          _delay_sec
                _init_dot_correction
                     _init_grayscale
                        _set_channel
                           _spi_init
                   _update_grayscale
 ---------------------------------------------------------------------------------
 (1) _update_grayscale                                     5     5      0     135
                                             16 COMRAM     5     5      0
                   _serial_send_data
 ---------------------------------------------------------------------------------
 (1) _spi_init                                             0     0      0       0
 ---------------------------------------------------------------------------------
 (1) _set_channel                                          2     1      1      98
                                             14 COMRAM     2     1      1
 ---------------------------------------------------------------------------------
 (1) _init_grayscale                                       1     1      0      15
                                             16 COMRAM     1     1      0
                   _serial_send_data
 ---------------------------------------------------------------------------------
 (1) _init_dot_correction                                  1     1      0      15
                                             16 COMRAM     1     1      0
                   _serial_send_data
 ---------------------------------------------------------------------------------
 (2) _serial_send_data                                     2     2      0      15
                                             14 COMRAM     2     2      0
 ---------------------------------------------------------------------------------
 (1) _delay_sec                                            3     3      0      30
                                             14 COMRAM     3     3      0
 ---------------------------------------------------------------------------------
 (1) _TMR2_init                                            0     0      0       0
 ---------------------------------------------------------------------------------
 Estimated maximum stack depth 2
 ---------------------------------------------------------------------------------
 (Depth) Function   	        Calls       Base Space   Used Autos Params    Refs
 ---------------------------------------------------------------------------------
 (3) _blank_pulse                                         14    14      0       0
                                              0 COMRAM    14    14      0
 ---------------------------------------------------------------------------------
 Estimated maximum stack depth 3
 ---------------------------------------------------------------------------------

 Call Graph Graphs:

 _main (ROOT)
   _TMR2_init
   _delay_sec
   _init_dot_correction
     _serial_send_data
   _init_grayscale
     _serial_send_data
   _set_channel
   _spi_init
   _update_grayscale
     _serial_send_data

 _blank_pulse (ROOT)

 Address spaces:
Name               Size   Autos  Total    Cost      Usage
BIGRAM             5FF      0       0      17        0.0%
EEDATA             100      0       0       0        0.0%
BITBANK5           100      0       0      16        0.0%
BANK5              100      0       0      14        0.0%
BITBANK4           100      0       0      12        0.0%
BANK4              100      0       0      13        0.0%
BITBANK3           100      0       0      10        0.0%
BANK3              100      0       0      11        0.0%
BITBANK2           100      0       0       8        0.0%
BANK2              100      0       0       9        0.0%
BITBANK1           100      0       0       6        0.0%
BANK1              100      0       0       7        0.0%
BITBANK0            80      0       0       4        0.0%
BANK0               80      0       0       5        0.0%
BITCOMRAM           7F      0       0       0        0.0%
COMRAM              7F     15      27       1       30.7%
BITSFR               0      0       0      40        0.0%
SFR                  0      0       0      40        0.0%
STACK                0      0       0       2        0.0%
NULL                 0      0       0       0        0.0%
ABS                  0      0      27      15        0.0%
DATA                 0      0      27       3        0.0%
CODE                 0      0       0       0        0.0%


Microchip Technology PIC18 Macro Assembler V1.32 build 58300 
Symbol Table                                                                                   Tue Jun 10 09:05:45 2014

                 _SSPSTATbits 000FC7                            l88 03CA                            u87 0136  
                          u97 01D6                  __CFG_CP0$OFF 000000                  __CFG_CP1$OFF 000000  
                __CFG_CP2$OFF 000000                  __CFG_CP3$OFF 000000                   __CFG_OSC$HS 000000  
                         l901 02D0                           l829 0152                           u107 01E8  
                         u117 0022                           u127 010A                           u137 011C  
                         u147 0324                           u157 037C                           _PR2 000FCB  
                         u167 038E                           u177 0424                           u187 03BA  
                         prod 000FF3                           wreg 000FE8                  __CFG_LVP$OFF 000000  
                __CFG_WDT$OFF 000000                          i2l93 0250                          _main 028A  
                        fsr0h 000FEA                          fsr1h 000FE2                          fsr0l 000FE9  
                        fsr2h 000FDA                          fsr1l 000FE1                          indf2 000FDF  
                        fsr2l 000FD9                          pclat 000FFA                          prodh 000FF4  
                        prodl 000FF3                          start 0018                 __CFG_MCLRE$ON 000000  
        serial_send_data@data 0010              _update_grayscale 0130                         ?_main 0001  
                       _T2CON 000FCA                         i2l873 024A                         _PORTA 000F80  
                       _PORTB 000F81                         _PORTC 000F82                         _PORTD 000F83  
                       _PORTE 000F84                         _TRISA 000F92                         _TRISB 000F93  
                       _TRISC 000F94                         _TRISD 000F95                         _TRISE 000F96  
               __CFG_PWRT$OFF 000000                         _count 0026            __size_of_TMR2_init 001C  
              __CFG_BOREN$OFF 000000                         tablat 000FF5                         status 000FD8  
        __size_of_blank_pulse 0282               __initialization 042E                  __end_of_main 031A  
                      ??_main 0016                 __activetblptr 000000  __size_of_init_dot_correction 0082  
                      _CCPR1L 000FBE                        _SSPBUF 000FC9      __end_of_serial_send_data 042E  
                ?_set_channel 000F             __end_of_TMR2_init 03E8                        clear_0 0434  
                      tblptrh 000FF7                        tblptrl 000FF6                        tblptru 000FF8  
            __end_of_spi_init 0418                    __accesstop 0080       __end_of__initialization 043A  
            set_channel@value 000F                __pcstackCOMRAM 0001            __size_of_delay_sec 0030  
    __end_of_update_grayscale 01F8                       _CCP1CON 000FBD             __end_of_delay_sec 03CC  
                     __Hparam 0000                       __Lparam 0000          __size_of_set_channel 001A  
         _init_dot_correction 031A                     ?_spi_init 0001                       _channel 0016  
                     __pcinit 042E                       __ramtop 0600                       __ptext0 028A  
                     __ptext1 0130                       __ptext2 0402                       __ptext3 03E8  
                     __ptext4 001C                       __ptext5 031A                       __ptext6 0418  
                     __ptext7 039C                       __ptext8 03CC       __size_of_init_grayscale 0114  
                   _T2CONbits 000FCA          ?_init_dot_correction 0001                __pintcode_body 01F8  
        end_of_initialization 043A                    delay_sec@i 0010                 ??_blank_pulse 0001  
                     int_func 01F8             ?_serial_send_data 0001     set_channel@channel_number 0010  
          ??_serial_send_data 000F                    ??_spi_init 000F                       postinc0 000FEE  
                   _TMR2_init 03CC         ??_init_dot_correction 0011                     _TRISCbits 000F94  
         __end_of_blank_pulse 028A       update_grayscale@counter 0014                    ?_TMR2_init 0001  
         start_initialization 042E             ?_update_grayscale 0001            ??_update_grayscale 0011  
              _init_grayscale 001C                   __pbssCOMRAM 0016             update_grayscale@i 0015  
                 _blank_pulse 0008                     _delay_sec 039C                     __pintcode 0008  
      __end_of_init_grayscale 0130             __size_of_spi_init 0016                   ??_TMR2_init 000F  
               ??_set_channel 0010                      _LATDbits 000F8C                      _PIE1bits 000F9D  
                  ?_delay_sec 0001                      _PIR1bits 000F9E               ?_init_grayscale 0001  
   __size_of_serial_send_data 0016                      __Hrparam 0000                      __Lrparam 0000  
         __end_of_set_channel 0402   __end_of_init_dot_correction 039C                 __size_of_main 0090  
                 ??_delay_sec 000F                      _spi_init 0402     __size_of_update_grayscale 00C8  
                  _INTCONbits 000FF2                      intlevel2 0000                  ?_blank_pulse 0001  
                 _set_channel 03E8              _serial_send_data 0418                   _SSPCON1bits 000FC6  
            ??_init_grayscale 0011  
